LIBRARY   DUI70
EXPORTS

    ; MSVC c++ exports
	??0?$PatternProvider@VExpandCollapseProvider@DirectUI@@UIExpandCollapseProvider@@$00@DirectUI@@QAE@XZ
	??0?$PatternProvider@VGridItemProvider@DirectUI@@UIGridItemProvider@@$01@DirectUI@@QAE@XZ
	??0?$PatternProvider@VGridProvider@DirectUI@@UIGridProvider@@$02@DirectUI@@QAE@XZ
	??0?$PatternProvider@VInvokeProvider@DirectUI@@UIInvokeProvider@@$0A@@DirectUI@@QAE@XZ
	??0?$PatternProvider@VRangeValueProvider@DirectUI@@UIRangeValueProvider@@$03@DirectUI@@QAE@XZ
	??0?$PatternProvider@VScrollItemProvider@DirectUI@@UIScrollItemProvider@@$05@DirectUI@@QAE@XZ
	??0?$PatternProvider@VScrollProvider@DirectUI@@UIScrollProvider@@$04@DirectUI@@QAE@XZ
	??0?$PatternProvider@VSelectionItemProvider@DirectUI@@UISelectionItemProvider@@$06@DirectUI@@QAE@XZ
	??0?$PatternProvider@VSelectionProvider@DirectUI@@UISelectionProvider@@$07@DirectUI@@QAE@XZ
	??0?$PatternProvider@VTableItemProvider@DirectUI@@UITableItemProvider@@$09@DirectUI@@QAE@XZ
	??0?$PatternProvider@VTableProvider@DirectUI@@UITableProvider@@$08@DirectUI@@QAE@XZ
	??0?$PatternProvider@VToggleProvider@DirectUI@@UIToggleProvider@@$0L@@DirectUI@@QAE@XZ
	??0?$PatternProvider@VValueProvider@DirectUI@@UIValueProvider@@$0M@@DirectUI@@QAE@XZ
	??0?$SafeArrayAccessor@H@DirectUI@@QAE@XZ
	??0AccessibleButton@DirectUI@@QAE@ABV01@@Z
	??0AccessibleButton@DirectUI@@QAE@XZ
	??0AnimationStrip@DirectUI@@QAE@ABV01@@Z
	??0AnimationStrip@DirectUI@@QAE@XZ
	??0AutoButton@DirectUI@@QAE@ABV01@@Z
	??0AutoButton@DirectUI@@QAE@XZ
	??0AutoLock@DirectUI@@QAE@PAU_RTL_CRITICAL_SECTION@@@Z
	??0AutoThread@DirectUI@@QAE@XZ
	??0AutoVariant@DirectUI@@QAE@XZ
	??0BaseScrollBar@DirectUI@@QAE@ABV01@@Z
	??0BaseScrollBar@DirectUI@@QAE@XZ
	??0BaseScrollViewer@DirectUI@@QAE@ABV01@@Z
	??0BaseScrollViewer@DirectUI@@QAE@XZ
	??0Bind@DirectUI@@QAE@ABV01@@Z
	??0Bind@DirectUI@@QAE@XZ
	??0BorderLayout@DirectUI@@QAE@ABV01@@Z
	??0BorderLayout@DirectUI@@QAE@XZ
	??0Browser@DirectUI@@QAE@ABV01@@Z
	??0Browser@DirectUI@@QAE@XZ
	??0BrowserSelectionProxy@DirectUI@@QAE@ABV01@@Z
	??0BrowserSelectionProxy@DirectUI@@QAE@XZ
	??0Button@DirectUI@@QAE@ABV01@@Z
	??0Button@DirectUI@@QAE@XZ
	??0CCAVI@DirectUI@@QAE@ABV01@@Z
	??0CCAVI@DirectUI@@QAE@XZ
	??0CCBase@DirectUI@@QAE@ABV01@@Z
	??0CCBase@DirectUI@@QAE@KPBG@Z
	??0CCBaseCheckRadioButton@DirectUI@@QAE@ABV01@@Z
	??0CCBaseCheckRadioButton@DirectUI@@QAE@K@Z
	??0CCBaseScrollBar@DirectUI@@QAE@ABV01@@Z
	??0CCBaseScrollBar@DirectUI@@QAE@K@Z
	??0CCCheckBox@DirectUI@@QAE@ABV01@@Z
	??0CCCheckBox@DirectUI@@QAE@K@Z
	??0CCCommandLink@DirectUI@@QAE@ABV01@@Z
	??0CCCommandLink@DirectUI@@QAE@K@Z
	??0CCHScrollBar@DirectUI@@QAE@ABV01@@Z
	??0CCHScrollBar@DirectUI@@QAE@XZ
	??0CCListBox@DirectUI@@QAE@ABV01@@Z
	??0CCListBox@DirectUI@@QAE@XZ
	??0CCListView@DirectUI@@QAE@ABV01@@Z
	??0CCListView@DirectUI@@QAE@XZ
	??0CCProgressBar@DirectUI@@QAE@ABV01@@Z
	??0CCProgressBar@DirectUI@@QAE@XZ
	??0CCPushButton@DirectUI@@QAE@ABV01@@Z
	??0CCPushButton@DirectUI@@QAE@K@Z
	??0CCRadioButton@DirectUI@@QAE@ABV01@@Z
	??0CCRadioButton@DirectUI@@QAE@XZ
	??0CCSysLink@DirectUI@@QAE@ABV01@@Z
	??0CCSysLink@DirectUI@@QAE@XZ
	??0CCTrackBar@DirectUI@@QAE@ABV01@@Z
	??0CCTrackBar@DirectUI@@QAE@XZ
	??0CCTreeView@DirectUI@@QAE@ABV01@@Z
	??0CCTreeView@DirectUI@@QAE@K@Z
	??0CCVScrollBar@DirectUI@@QAE@ABV01@@Z
	??0CCVScrollBar@DirectUI@@QAE@XZ
	??0CallstackTracker@DirectUI@@QAE@XZ
	??0CheckBoxGlyph@DirectUI@@QAE@ABV01@@Z
	??0CheckBoxGlyph@DirectUI@@QAE@XZ
	??0ClassInfoBase@DirectUI@@QAE@ABV01@@Z
	??0ClassInfoBase@DirectUI@@QAE@XZ
	??0Clipper@DirectUI@@QAE@ABV01@@Z
	??0Clipper@DirectUI@@QAE@XZ
	??0Combobox@DirectUI@@QAE@ABV01@@Z
	??0Combobox@DirectUI@@QAE@XZ
	??0CritSecLock@DirectUI@@QAE@PAU_RTL_CRITICAL_SECTION@@@Z
	??0DCSurface@DirectUI@@QAE@ABV01@@Z
	??0DCSurface@DirectUI@@QAE@PAUHDC__@@@Z
	??0DUIFactory@DirectUI@@QAE@PAUHWND__@@@Z
	??0DUIXmlParser@DirectUI@@QAE@ABV01@@Z
	??0DUIXmlParser@DirectUI@@QAE@XZ
	??0DialogElement@DirectUI@@QAE@ABV01@@Z
	??0DialogElement@DirectUI@@QAE@XZ
	??0DuiAccessible@DirectUI@@QAE@XZ
	??0Edit@DirectUI@@QAE@ABV01@@Z
	??0Edit@DirectUI@@QAE@XZ
	??0Element@DirectUI@@QAE@ABV01@@Z
	??0Element@DirectUI@@QAE@XZ
	??0ElementProvider@DirectUI@@QAE@XZ
	??0ElementProxy@DirectUI@@QAE@ABV01@@Z
	??0ElementProxy@DirectUI@@QAE@XZ
	??0ElementWithHWND@DirectUI@@QAE@ABV01@@Z
	??0ElementWithHWND@DirectUI@@QAE@XZ
	??0ExpandCollapseProvider@DirectUI@@QAE@XZ
	??0ExpandCollapseProxy@DirectUI@@QAE@ABV01@@Z
	??0ExpandCollapseProxy@DirectUI@@QAE@XZ
	??0Expandable@DirectUI@@QAE@ABV01@@Z
	??0Expandable@DirectUI@@QAE@XZ
	??0Expando@DirectUI@@QAE@ABV01@@Z
	??0Expando@DirectUI@@QAE@XZ
	??0ExpandoButtonGlyph@DirectUI@@QAE@ABV01@@Z
	??0ExpandoButtonGlyph@DirectUI@@QAE@XZ
	??0FillLayout@DirectUI@@QAE@ABV01@@Z
	??0FillLayout@DirectUI@@QAE@XZ
	??0FlowLayout@DirectUI@@QAE@ABV01@@Z
	??0FlowLayout@DirectUI@@QAE@XZ
	??0FontCache@DirectUI@@QAE@ABV01@@Z
	??0FontCache@DirectUI@@QAE@XZ
	??0FontCheckOut@DirectUI@@QAE@PAVElement@1@PAUHDC__@@@Z
	??0GridItemProvider@DirectUI@@QAE@XZ
	??0GridItemProxy@DirectUI@@QAE@ABV01@@Z
	??0GridItemProxy@DirectUI@@QAE@XZ
	??0GridLayout@DirectUI@@QAE@ABV01@@Z
	??0GridLayout@DirectUI@@QAE@XZ
	??0GridProvider@DirectUI@@QAE@XZ
	??0GridProxy@DirectUI@@QAE@ABV01@@Z
	??0GridProxy@DirectUI@@QAE@XZ
	??0HWNDElement@DirectUI@@QAE@ABV01@@Z
	??0HWNDElement@DirectUI@@QAE@XZ
	??0HWNDElementAccessible@DirectUI@@QAE@XZ
	??0HWNDElementProvider@DirectUI@@QAE@XZ
	??0HWNDElementProxy@DirectUI@@QAE@ABV01@@Z
	??0HWNDElementProxy@DirectUI@@QAE@XZ
	??0HWNDHost@DirectUI@@QAE@ABV01@@Z
	??0HWNDHost@DirectUI@@QAE@XZ
	??0HWNDHostAccessible@DirectUI@@QAE@XZ
	??0HWNDHostClientAccessible@DirectUI@@QAE@XZ
	??0IDataEngine@DirectUI@@QAE@ABU01@@Z
	??0IDataEngine@DirectUI@@QAE@XZ
	??0IDataEntry@DirectUI@@QAE@ABU01@@Z
	??0IDataEntry@DirectUI@@QAE@XZ
	??0IProvider@DirectUI@@QAE@ABV01@@Z
	??0IProvider@DirectUI@@QAE@XZ
	??0ISBLeak@DirectUI@@QAE@ABU01@@Z
	??0ISBLeak@DirectUI@@QAE@XZ
	??0IXElementCP@DirectUI@@QAE@ABV01@@Z
	??0IXElementCP@DirectUI@@QAE@XZ
	??0IXProviderCP@DirectUI@@QAE@ABV01@@Z
	??0IXProviderCP@DirectUI@@QAE@XZ
	??0InvokeHelper@DirectUI@@QAE@XZ
	??0InvokeProvider@DirectUI@@QAE@XZ
	??0InvokeProxy@DirectUI@@QAE@ABV01@@Z
	??0InvokeProxy@DirectUI@@QAE@XZ
	??0Layout@DirectUI@@QAE@ABV01@@Z
	??0Layout@DirectUI@@QAE@XZ
	??0LinkedList@DirectUI@@QAE@XZ
	??0Macro@DirectUI@@QAE@ABV01@@Z
	??0Macro@DirectUI@@QAE@XZ
	??0Movie@DirectUI@@QAE@ABV01@@Z
	??0Movie@DirectUI@@QAE@XZ
	??0NativeHWNDHost@DirectUI@@QAE@ABV01@@Z
	??0NativeHWNDHost@DirectUI@@QAE@XZ
	??0Navigator@DirectUI@@QAE@ABV01@@Z
	??0Navigator@DirectUI@@QAE@XZ
	??0NavigatorSelectionItemProxy@DirectUI@@QAE@ABV01@@Z
	??0NavigatorSelectionItemProxy@DirectUI@@QAE@XZ
	??0NineGridLayout@DirectUI@@QAE@ABV01@@Z
	??0NineGridLayout@DirectUI@@QAE@XZ
	??0PText@DirectUI@@QAE@ABV01@@Z
	??0PText@DirectUI@@QAE@XZ
	??0Page@DirectUI@@QAE@ABV01@@Z
	??0Page@DirectUI@@QAE@XZ
	??0Pages@DirectUI@@QAE@ABV01@@Z
	??0Pages@DirectUI@@QAE@XZ
	??0Progress@DirectUI@@QAE@ABV01@@Z
	??0Progress@DirectUI@@QAE@XZ
	??0ProgressRangeValueProxy@DirectUI@@QAE@ABV01@@Z
	??0ProgressRangeValueProxy@DirectUI@@QAE@XZ
	??0ProviderProxy@DirectUI@@IAE@XZ
	??0ProviderProxy@DirectUI@@QAE@ABV01@@Z
	??0Proxy@DirectUI@@QAE@ABV01@@Z
	??0Proxy@DirectUI@@QAE@XZ
	??0PushButton@DirectUI@@QAE@ABV01@@Z
	??0PushButton@DirectUI@@QAE@XZ
	??0RadioButtonGlyph@DirectUI@@QAE@ABV01@@Z
	??0RadioButtonGlyph@DirectUI@@QAE@XZ
	??0RangeValueProvider@DirectUI@@QAE@XZ
	??0RangeValueProxy@DirectUI@@IAE@XZ
	??0RangeValueProxy@DirectUI@@QAE@ABV01@@Z
	??0RefPointElement@DirectUI@@QAE@ABV01@@Z
	??0RefPointElement@DirectUI@@QAE@XZ
	??0RefcountBase@DirectUI@@QAE@XZ
	??0RepeatButton@DirectUI@@QAE@ABV01@@Z
	??0RepeatButton@DirectUI@@QAE@XZ
	??0Repeater@DirectUI@@QAE@ABV01@@Z
	??0Repeater@DirectUI@@QAE@XZ
	??0ResourceModuleHandles@DirectUI@@QAE@XZ
	??0RowLayout@DirectUI@@QAE@ABV01@@Z
	??0RowLayout@DirectUI@@QAE@XZ
	??0ScrollBar@DirectUI@@QAE@ABV01@@Z
	??0ScrollBar@DirectUI@@QAE@XZ
	??0ScrollBarRangeValueProxy@DirectUI@@QAE@ABV01@@Z
	??0ScrollBarRangeValueProxy@DirectUI@@QAE@XZ
	??0ScrollItemProvider@DirectUI@@QAE@XZ
	??0ScrollItemProxy@DirectUI@@QAE@ABV01@@Z
	??0ScrollItemProxy@DirectUI@@QAE@XZ
	??0ScrollProvider@DirectUI@@QAE@XZ
	??0ScrollProxy@DirectUI@@QAE@ABV01@@Z
	??0ScrollProxy@DirectUI@@QAE@XZ
	??0ScrollViewer@DirectUI@@QAE@ABV01@@Z
	??0ScrollViewer@DirectUI@@QAE@XZ
	??0SelectionItemProvider@DirectUI@@QAE@XZ
	??0SelectionItemProxy@DirectUI@@IAE@XZ
	??0SelectionItemProxy@DirectUI@@QAE@ABV01@@Z
	??0SelectionProvider@DirectUI@@QAE@XZ
	??0SelectionProxy@DirectUI@@IAE@XZ
	??0SelectionProxy@DirectUI@@QAE@ABV01@@Z
	??0Selector@DirectUI@@QAE@ABV01@@Z
	??0Selector@DirectUI@@QAE@XZ
	??0SelectorNoDefault@DirectUI@@QAE@ABV01@@Z
	??0SelectorNoDefault@DirectUI@@QAE@XZ
	??0SelectorSelectionItemProxy@DirectUI@@QAE@ABV01@@Z
	??0SelectorSelectionItemProxy@DirectUI@@QAE@XZ
	??0SelectorSelectionProxy@DirectUI@@QAE@ABV01@@Z
	??0SelectorSelectionProxy@DirectUI@@QAE@XZ
	??0ShellBorderLayout@DirectUI@@QAE@ABV01@@Z
	??0ShellBorderLayout@DirectUI@@QAE@XZ
	??0StyleSheet@DirectUI@@QAE@ABV01@@Z
	??0StyleSheet@DirectUI@@QAE@XZ
	??0StyledScrollViewer@DirectUI@@QAE@ABV01@@Z
	??0StyledScrollViewer@DirectUI@@QAE@XZ
	??0Surface@DirectUI@@QAE@ABV01@@Z
	??0Surface@DirectUI@@QAE@XZ
	??0TableItemProvider@DirectUI@@QAE@XZ
	??0TableItemProxy@DirectUI@@QAE@ABV01@@Z
	??0TableItemProxy@DirectUI@@QAE@XZ
	??0TableLayout@DirectUI@@QAE@ABV01@@Z
	??0TableLayout@DirectUI@@QAE@XZ
	??0TableProvider@DirectUI@@QAE@XZ
	??0TableProxy@DirectUI@@QAE@ABV01@@Z
	??0TableProxy@DirectUI@@QAE@XZ
	??0TaskPage@DirectUI@@QAE@ABV01@@Z
	??0TaskPage@DirectUI@@QAE@XZ
	??0TextGraphic@DirectUI@@QAE@ABV01@@Z
	??0TextGraphic@DirectUI@@QAE@XZ
	??0Thumb@DirectUI@@QAE@ABV01@@Z
	??0Thumb@DirectUI@@QAE@XZ
	??0ToggleProvider@DirectUI@@QAE@XZ
	??0ToggleProxy@DirectUI@@QAE@ABV01@@Z
	??0ToggleProxy@DirectUI@@QAE@XZ
	??0UnknownElement@DirectUI@@QAE@ABV01@@Z
	??0UnknownElement@DirectUI@@QAE@XZ
	??0ValueProvider@DirectUI@@QAE@XZ
	??0ValueProxy@DirectUI@@QAE@ABV01@@Z
	??0ValueProxy@DirectUI@@QAE@XZ
	??0VerticalFlowLayout@DirectUI@@QAE@ABV01@@Z
	??0VerticalFlowLayout@DirectUI@@QAE@XZ
	??0Viewer@DirectUI@@QAE@ABV01@@Z
	??0Viewer@DirectUI@@QAE@XZ
	??0XBaby@DirectUI@@QAE@ABV01@@Z
	??0XBaby@DirectUI@@QAE@XZ
	??0XElement@DirectUI@@QAE@ABV01@@Z
	??0XElement@DirectUI@@QAE@XZ
	??0XHost@DirectUI@@QAE@XZ
	??0XProvider@DirectUI@@QAE@ABV01@@Z
	??0XProvider@DirectUI@@QAE@XZ
	??0XResourceProvider@DirectUI@@QAE@ABV01@@Z
	??0XResourceProvider@DirectUI@@QAE@XZ
	??1?$PatternProvider@VExpandCollapseProvider@DirectUI@@UIExpandCollapseProvider@@$00@DirectUI@@UAE@XZ
	??1?$PatternProvider@VGridItemProvider@DirectUI@@UIGridItemProvider@@$01@DirectUI@@UAE@XZ
	??1?$PatternProvider@VGridProvider@DirectUI@@UIGridProvider@@$02@DirectUI@@UAE@XZ
	??1?$PatternProvider@VInvokeProvider@DirectUI@@UIInvokeProvider@@$0A@@DirectUI@@UAE@XZ
	??1?$PatternProvider@VRangeValueProvider@DirectUI@@UIRangeValueProvider@@$03@DirectUI@@UAE@XZ
	??1?$PatternProvider@VScrollItemProvider@DirectUI@@UIScrollItemProvider@@$05@DirectUI@@UAE@XZ
	??1?$PatternProvider@VScrollProvider@DirectUI@@UIScrollProvider@@$04@DirectUI@@UAE@XZ
	??1?$PatternProvider@VSelectionItemProvider@DirectUI@@UISelectionItemProvider@@$06@DirectUI@@UAE@XZ
	??1?$PatternProvider@VSelectionProvider@DirectUI@@UISelectionProvider@@$07@DirectUI@@UAE@XZ
	??1?$PatternProvider@VTableItemProvider@DirectUI@@UITableItemProvider@@$09@DirectUI@@UAE@XZ
	??1?$PatternProvider@VTableProvider@DirectUI@@UITableProvider@@$08@DirectUI@@UAE@XZ
	??1?$PatternProvider@VToggleProvider@DirectUI@@UIToggleProvider@@$0L@@DirectUI@@UAE@XZ
	??1?$PatternProvider@VValueProvider@DirectUI@@UIValueProvider@@$0M@@DirectUI@@UAE@XZ
	??1?$SafeArrayAccessor@H@DirectUI@@QAE@XZ
	??1AccessibleButton@DirectUI@@UAE@XZ
	??1AnimationStrip@DirectUI@@UAE@XZ
	??1AutoButton@DirectUI@@UAE@XZ
	??1AutoLock@DirectUI@@QAE@XZ
	??1AutoThread@DirectUI@@QAE@XZ
	??1AutoVariant@DirectUI@@QAE@XZ
	??1BaseScrollViewer@DirectUI@@UAE@XZ
	??1Bind@DirectUI@@UAE@XZ
	??1BorderLayout@DirectUI@@UAE@XZ
	??1Browser@DirectUI@@UAE@XZ
	??1Button@DirectUI@@UAE@XZ
	??1CCAVI@DirectUI@@UAE@XZ
	??1CCBase@DirectUI@@UAE@XZ
	??1CCBaseCheckRadioButton@DirectUI@@UAE@XZ
	??1CCBaseScrollBar@DirectUI@@UAE@XZ
	??1CCCheckBox@DirectUI@@UAE@XZ
	??1CCCommandLink@DirectUI@@UAE@XZ
	??1CCHScrollBar@DirectUI@@UAE@XZ
	??1CCListBox@DirectUI@@UAE@XZ
	??1CCListView@DirectUI@@UAE@XZ
	??1CCProgressBar@DirectUI@@UAE@XZ
	??1CCPushButton@DirectUI@@UAE@XZ
	??1CCRadioButton@DirectUI@@UAE@XZ
	??1CCSysLink@DirectUI@@UAE@XZ
	??1CCTrackBar@DirectUI@@UAE@XZ
	??1CCTreeView@DirectUI@@UAE@XZ
	??1CCVScrollBar@DirectUI@@UAE@XZ
	??1CallstackTracker@DirectUI@@QAE@XZ
	??1CheckBoxGlyph@DirectUI@@UAE@XZ
	??1ClassInfoBase@DirectUI@@UAE@XZ
	??1Clipper@DirectUI@@UAE@XZ
	??1Combobox@DirectUI@@UAE@XZ
	??1CritSecLock@DirectUI@@QAE@XZ
	??1DCSurface@DirectUI@@UAE@XZ
	??1DUIFactory@DirectUI@@QAE@XZ
	??1DUIXmlParser@DirectUI@@UAE@XZ
	??1DialogElement@DirectUI@@UAE@XZ
	??1DuiAccessible@DirectUI@@UAE@XZ
	??1Edit@DirectUI@@UAE@XZ
	??1Element@DirectUI@@UAE@XZ
	??1ElementProvider@DirectUI@@UAE@XZ
	??1ElementWithHWND@DirectUI@@UAE@XZ
	??1ExpandCollapseProvider@DirectUI@@UAE@XZ
	??1Expandable@DirectUI@@UAE@XZ
	??1Expando@DirectUI@@UAE@XZ
	??1ExpandoButtonGlyph@DirectUI@@UAE@XZ
	??1FillLayout@DirectUI@@UAE@XZ
	??1FlowLayout@DirectUI@@UAE@XZ
	??1FontCheckOut@DirectUI@@QAE@XZ
	??1GridItemProvider@DirectUI@@UAE@XZ
	??1GridLayout@DirectUI@@UAE@XZ
	??1GridProvider@DirectUI@@UAE@XZ
	??1HWNDElement@DirectUI@@UAE@XZ
	??1HWNDElementAccessible@DirectUI@@UAE@XZ
	??1HWNDElementProvider@DirectUI@@UAE@XZ
	??1HWNDHost@DirectUI@@UAE@XZ
	??1HWNDHostAccessible@DirectUI@@UAE@XZ
	??1HWNDHostClientAccessible@DirectUI@@UAE@XZ
	??1IDataEngine@DirectUI@@UAE@XZ
	??1IDataEntry@DirectUI@@UAE@XZ
	??1InvokeHelper@DirectUI@@UAE@XZ
	??1InvokeProvider@DirectUI@@UAE@XZ
	??1Layout@DirectUI@@UAE@XZ
	??1LinkedList@DirectUI@@QAE@XZ
	??1Macro@DirectUI@@UAE@XZ
	??1Movie@DirectUI@@UAE@XZ
	??1NativeHWNDHost@DirectUI@@UAE@XZ
	??1Navigator@DirectUI@@UAE@XZ
	??1NineGridLayout@DirectUI@@UAE@XZ
	??1PText@DirectUI@@UAE@XZ
	??1Page@DirectUI@@UAE@XZ
	??1Pages@DirectUI@@UAE@XZ
	??1Progress@DirectUI@@UAE@XZ
	??1Proxy@DirectUI@@UAE@XZ
	??1PushButton@DirectUI@@UAE@XZ
	??1RadioButtonGlyph@DirectUI@@UAE@XZ
	??1RangeValueProvider@DirectUI@@UAE@XZ
	??1RefPointElement@DirectUI@@UAE@XZ
	??1RefcountBase@DirectUI@@UAE@XZ
	??1RepeatButton@DirectUI@@UAE@XZ
	??1Repeater@DirectUI@@UAE@XZ
	??1ResourceModuleHandles@DirectUI@@QAE@XZ
	??1RowLayout@DirectUI@@UAE@XZ
	??1ScrollBar@DirectUI@@UAE@XZ
	??1ScrollItemProvider@DirectUI@@UAE@XZ
	??1ScrollProvider@DirectUI@@UAE@XZ
	??1ScrollViewer@DirectUI@@UAE@XZ
	??1SelectionItemProvider@DirectUI@@UAE@XZ
	??1SelectionProvider@DirectUI@@UAE@XZ
	??1Selector@DirectUI@@UAE@XZ
	??1SelectorNoDefault@DirectUI@@UAE@XZ
	??1ShellBorderLayout@DirectUI@@UAE@XZ
	??1StyledScrollViewer@DirectUI@@UAE@XZ
	??1Surface@DirectUI@@UAE@XZ
	??1TableItemProvider@DirectUI@@UAE@XZ
	??1TableLayout@DirectUI@@UAE@XZ
	??1TableProvider@DirectUI@@UAE@XZ
	??1TaskPage@DirectUI@@UAE@XZ
	??1TextGraphic@DirectUI@@UAE@XZ
	??1Thumb@DirectUI@@UAE@XZ
	??1ToggleProvider@DirectUI@@UAE@XZ
	??1UnknownElement@DirectUI@@UAE@XZ
	??1ValueProvider@DirectUI@@UAE@XZ
	??1VerticalFlowLayout@DirectUI@@UAE@XZ
	??1Viewer@DirectUI@@UAE@XZ
	??1XBaby@DirectUI@@UAE@XZ
	??1XElement@DirectUI@@UAE@XZ
	??1XHost@DirectUI@@QAE@XZ
	??1XProvider@DirectUI@@UAE@XZ
	??4?$FunctionDefinition@H@DUIXmlParser@DirectUI@@QAEAAU012@ABU012@@Z
	??4?$FunctionDefinition@K@DUIXmlParser@DirectUI@@QAEAAU012@ABU012@@Z
	??4?$FunctionDefinition@PAVValue@DirectUI@@@DUIXmlParser@DirectUI@@QAEAAU012@ABU012@@Z
	??4?$FunctionDefinition@UtagRECT@@@DUIXmlParser@DirectUI@@QAEAAU012@ABU012@@Z
	??4ACCESSIBLEROLE@AccessibleButton@DirectUI@@QAEAAU012@ABU012@@Z
	??4AccessibleButton@DirectUI@@QAEAAV01@ABV01@@Z
	??4AnimationStrip@DirectUI@@QAEAAV01@ABV01@@Z
	??4AutoButton@DirectUI@@QAEAAV01@ABV01@@Z
	??4AutoLock@DirectUI@@QAEAAV01@ABV01@@Z
	??4AutoThread@DirectUI@@QAEAAV01@ABV01@@Z
	??4AutoVariant@DirectUI@@QAEAAV01@ABV01@@Z
	??4BaseScrollBar@DirectUI@@QAEAAV01@ABV01@@Z
	??4BaseScrollViewer@DirectUI@@QAEAAV01@ABV01@@Z
	??4Bind@DirectUI@@QAEAAV01@ABV01@@Z
	??4BorderLayout@DirectUI@@QAEAAV01@ABV01@@Z
	??4Browser@DirectUI@@QAEAAV01@ABV01@@Z
	??4BrowserSelectionProxy@DirectUI@@QAEAAV01@ABV01@@Z
	??4Button@DirectUI@@QAEAAV01@ABV01@@Z
	??4CCAVI@DirectUI@@QAEAAV01@ABV01@@Z
	??4CCBase@DirectUI@@QAEAAV01@ABV01@@Z
	??4CCBaseCheckRadioButton@DirectUI@@QAEAAV01@ABV01@@Z
	??4CCBaseScrollBar@DirectUI@@QAEAAV01@ABV01@@Z
	??4CCCheckBox@DirectUI@@QAEAAV01@ABV01@@Z
	??4CCCommandLink@DirectUI@@QAEAAV01@ABV01@@Z
	??4CCHScrollBar@DirectUI@@QAEAAV01@ABV01@@Z
	??4CCListBox@DirectUI@@QAEAAV01@ABV01@@Z
	??4CCListView@DirectUI@@QAEAAV01@ABV01@@Z
	??4CCProgressBar@DirectUI@@QAEAAV01@ABV01@@Z
	??4CCPushButton@DirectUI@@QAEAAV01@ABV01@@Z
	??4CCRadioButton@DirectUI@@QAEAAV01@ABV01@@Z
	??4CCSysLink@DirectUI@@QAEAAV01@ABV01@@Z
	??4CCTrackBar@DirectUI@@QAEAAV01@ABV01@@Z
	??4CCTreeView@DirectUI@@QAEAAV01@ABV01@@Z
	??4CCVScrollBar@DirectUI@@QAEAAV01@ABV01@@Z
	??4CallstackTracker@DirectUI@@QAEAAV01@ABV01@@Z
	??4CheckBoxGlyph@DirectUI@@QAEAAV01@ABV01@@Z
	??4ClassInfoBase@DirectUI@@QAEAAV01@ABV01@@Z
	??4Clipper@DirectUI@@QAEAAV01@ABV01@@Z
	??4Combobox@DirectUI@@QAEAAV01@ABV01@@Z
	??4CritSecLock@DirectUI@@QAEAAV01@ABV01@@Z
	??4DCSurface@DirectUI@@QAEAAV01@ABV01@@Z
	??4DUIFactory@DirectUI@@QAEAAV01@ABV01@@Z
	??4DUIXmlParser@DirectUI@@QAEAAV01@ABV01@@Z
	??4DialogElement@DirectUI@@QAEAAV01@ABV01@@Z
	??4DuiNavigate@DirectUI@@QAEAAV01@ABV01@@Z
	??4Edit@DirectUI@@QAEAAV01@ABV01@@Z
	??4Element@DirectUI@@QAEAAV01@ABV01@@Z
	??4ElementProviderManager@DirectUI@@QAEAAV01@ABV01@@Z
	??4ElementProxy@DirectUI@@QAEAAV01@ABV01@@Z
	??4ElementWithHWND@DirectUI@@QAEAAV01@ABV01@@Z
	??4EventManager@DirectUI@@QAEAAV01@ABV01@@Z
	??4ExpandCollapseProxy@DirectUI@@QAEAAV01@ABV01@@Z
	??4Expandable@DirectUI@@QAEAAV01@ABV01@@Z
	??4Expando@DirectUI@@QAEAAV01@ABV01@@Z
	??4ExpandoButtonGlyph@DirectUI@@QAEAAV01@ABV01@@Z
	??4Expression@DirectUI@@QAEAAV01@ABV01@@Z
	??4FillLayout@DirectUI@@QAEAAV01@ABV01@@Z
	??4FlowLayout@DirectUI@@QAEAAV01@ABV01@@Z
	??4FontCache@DirectUI@@QAEAAV01@ABV01@@Z
	??4FontCheckOut@DirectUI@@QAEAAV01@ABV01@@Z
	??4GridItemProxy@DirectUI@@QAEAAV01@ABV01@@Z
	??4GridLayout@DirectUI@@QAEAAV01@ABV01@@Z
	??4GridProxy@DirectUI@@QAEAAV01@ABV01@@Z
	??4HWNDElement@DirectUI@@QAEAAV01@ABV01@@Z
	??4HWNDElementProxy@DirectUI@@QAEAAV01@ABV01@@Z
	??4HWNDHost@DirectUI@@QAEAAV01@ABV01@@Z
	??4IDataEngine@DirectUI@@QAEAAU01@ABU01@@Z
	??4IDataEntry@DirectUI@@QAEAAU01@ABU01@@Z
	??4IProvider@DirectUI@@QAEAAV01@ABV01@@Z
	??4ISBLeak@DirectUI@@QAEAAU01@ABU01@@Z
	??4IXElementCP@DirectUI@@QAEAAV01@ABV01@@Z
	??4IXProviderCP@DirectUI@@QAEAAV01@ABV01@@Z
	??4InvokeManager@DirectUI@@QAEAAV01@ABV01@@Z
	??4InvokeProxy@DirectUI@@QAEAAV01@ABV01@@Z
	??4Layout@DirectUI@@QAEAAV01@ABV01@@Z
	??4LinkedList@DirectUI@@QAEAAV01@ABV01@@Z
	??4LinkedListNode@DirectUI@@QAEAAV01@ABV01@@Z
	??4Macro@DirectUI@@QAEAAV01@ABV01@@Z
	??4Movie@DirectUI@@QAEAAV01@ABV01@@Z
	??4NativeHWNDHost@DirectUI@@QAEAAV01@ABV01@@Z
	??4NavReference@DirectUI@@QAEAAU01@ABU01@@Z
	??4NavScoring@DirectUI@@QAEAAU01@ABU01@@Z
	??4Navigator@DirectUI@@QAEAAV01@ABV01@@Z
	??4NavigatorSelectionItemProxy@DirectUI@@QAEAAV01@ABV01@@Z
	??4NineGridLayout@DirectUI@@QAEAAV01@ABV01@@Z
	??4PText@DirectUI@@QAEAAV01@ABV01@@Z
	??4Page@DirectUI@@QAEAAV01@ABV01@@Z
	??4Pages@DirectUI@@QAEAAV01@ABV01@@Z
	??4Progress@DirectUI@@QAEAAV01@ABV01@@Z
	??4ProgressRangeValueProxy@DirectUI@@QAEAAV01@ABV01@@Z
	??4ProviderProxy@DirectUI@@QAEAAV01@ABV01@@Z
	??4Proxy@DirectUI@@QAEAAV01@ABV01@@Z
	??4PushButton@DirectUI@@QAEAAV01@ABV01@@Z
	??4RadioButtonGlyph@DirectUI@@QAEAAV01@ABV01@@Z
	??4RangeValueProxy@DirectUI@@QAEAAV01@ABV01@@Z
	??4RefPointElement@DirectUI@@QAEAAV01@ABV01@@Z
	??4RepeatButton@DirectUI@@QAEAAV01@ABV01@@Z
	??4Repeater@DirectUI@@QAEAAV01@ABV01@@Z
	??4ResourceModuleHandles@DirectUI@@QAEAAV01@ABV01@@Z
	??4RowLayout@DirectUI@@QAEAAV01@ABV01@@Z
	??4Schema@DirectUI@@QAEAAV01@ABV01@@Z
	??4ScrollBar@DirectUI@@QAEAAV01@ABV01@@Z
	??4ScrollBarRangeValueProxy@DirectUI@@QAEAAV01@ABV01@@Z
	??4ScrollItemProxy@DirectUI@@QAEAAV01@ABV01@@Z
	??4ScrollProxy@DirectUI@@QAEAAV01@ABV01@@Z
	??4ScrollViewer@DirectUI@@QAEAAV01@ABV01@@Z
	??4SelectionItemProxy@DirectUI@@QAEAAV01@ABV01@@Z
	??4SelectionProxy@DirectUI@@QAEAAV01@ABV01@@Z
	??4Selector@DirectUI@@QAEAAV01@ABV01@@Z
	??4SelectorNoDefault@DirectUI@@QAEAAV01@ABV01@@Z
	??4SelectorSelectionItemProxy@DirectUI@@QAEAAV01@ABV01@@Z
	??4SelectorSelectionProxy@DirectUI@@QAEAAV01@ABV01@@Z
	??4ShellBorderLayout@DirectUI@@QAEAAV01@ABV01@@Z
	??4StyleSheet@DirectUI@@QAEAAV01@ABV01@@Z
	??4StyledScrollViewer@DirectUI@@QAEAAV01@ABV01@@Z
	??4Surface@DirectUI@@QAEAAV01@ABV01@@Z
	??4TableItemProxy@DirectUI@@QAEAAV01@ABV01@@Z
	??4TableLayout@DirectUI@@QAEAAV01@ABV01@@Z
	??4TableProxy@DirectUI@@QAEAAV01@ABV01@@Z
	??4TaskPage@DirectUI@@QAEAAV01@ABV01@@Z
	??4TextGraphic@DirectUI@@QAEAAV01@ABV01@@Z
	??4Thumb@DirectUI@@QAEAAV01@ABV01@@Z
	??4ToggleProxy@DirectUI@@QAEAAV01@ABV01@@Z
	??4UnknownElement@DirectUI@@QAEAAV01@ABV01@@Z
	??4Value@DirectUI@@QAEAAV01@ABV01@@Z
	??4ValueProxy@DirectUI@@QAEAAV01@ABV01@@Z
	??4VerticalFlowLayout@DirectUI@@QAEAAV01@ABV01@@Z
	??4Viewer@DirectUI@@QAEAAV01@ABV01@@Z
	??4XBaby@DirectUI@@QAEAAV01@ABV01@@Z
	??4XElement@DirectUI@@QAEAAV01@ABV01@@Z
	??4XHost@DirectUI@@QAEAAV01@ABV01@@Z
	??4XProvider@DirectUI@@QAEAAV01@ABV01@@Z
	??4XResourceProvider@DirectUI@@QAEAAV01@ABV01@@Z
	??B?$SafeArrayAccessor@H@DirectUI@@QAEPAHXZ
	??BTaskPage@DirectUI@@QAEPAU_PSP@@XZ
	??_7?$PatternProvider@VExpandCollapseProvider@DirectUI@@UIExpandCollapseProvider@@$00@DirectUI@@6BIProvider@1@@
	??_7?$PatternProvider@VExpandCollapseProvider@DirectUI@@UIExpandCollapseProvider@@$00@DirectUI@@6BRefcountBase@1@@
	??_7?$PatternProvider@VGridItemProvider@DirectUI@@UIGridItemProvider@@$01@DirectUI@@6BIProvider@1@@
	??_7?$PatternProvider@VGridItemProvider@DirectUI@@UIGridItemProvider@@$01@DirectUI@@6BRefcountBase@1@@
	??_7?$PatternProvider@VGridProvider@DirectUI@@UIGridProvider@@$02@DirectUI@@6BIProvider@1@@
	??_7?$PatternProvider@VGridProvider@DirectUI@@UIGridProvider@@$02@DirectUI@@6BRefcountBase@1@@
	??_7?$PatternProvider@VInvokeProvider@DirectUI@@UIInvokeProvider@@$0A@@DirectUI@@6BIProvider@1@@
	??_7?$PatternProvider@VInvokeProvider@DirectUI@@UIInvokeProvider@@$0A@@DirectUI@@6BRefcountBase@1@@
	??_7?$PatternProvider@VRangeValueProvider@DirectUI@@UIRangeValueProvider@@$03@DirectUI@@6BIProvider@1@@
	??_7?$PatternProvider@VRangeValueProvider@DirectUI@@UIRangeValueProvider@@$03@DirectUI@@6BRefcountBase@1@@
	??_7?$PatternProvider@VScrollItemProvider@DirectUI@@UIScrollItemProvider@@$05@DirectUI@@6BIProvider@1@@
	??_7?$PatternProvider@VScrollItemProvider@DirectUI@@UIScrollItemProvider@@$05@DirectUI@@6BRefcountBase@1@@
	??_7?$PatternProvider@VScrollProvider@DirectUI@@UIScrollProvider@@$04@DirectUI@@6BIProvider@1@@
	??_7?$PatternProvider@VScrollProvider@DirectUI@@UIScrollProvider@@$04@DirectUI@@6BRefcountBase@1@@
	??_7?$PatternProvider@VSelectionItemProvider@DirectUI@@UISelectionItemProvider@@$06@DirectUI@@6BIProvider@1@@
	??_7?$PatternProvider@VSelectionItemProvider@DirectUI@@UISelectionItemProvider@@$06@DirectUI@@6BRefcountBase@1@@
	??_7?$PatternProvider@VSelectionProvider@DirectUI@@UISelectionProvider@@$07@DirectUI@@6BIProvider@1@@
	??_7?$PatternProvider@VSelectionProvider@DirectUI@@UISelectionProvider@@$07@DirectUI@@6BRefcountBase@1@@
	??_7?$PatternProvider@VTableItemProvider@DirectUI@@UITableItemProvider@@$09@DirectUI@@6BIProvider@1@@
	??_7?$PatternProvider@VTableItemProvider@DirectUI@@UITableItemProvider@@$09@DirectUI@@6BRefcountBase@1@@
	??_7?$PatternProvider@VTableProvider@DirectUI@@UITableProvider@@$08@DirectUI@@6BIProvider@1@@
	??_7?$PatternProvider@VTableProvider@DirectUI@@UITableProvider@@$08@DirectUI@@6BRefcountBase@1@@
	??_7?$PatternProvider@VToggleProvider@DirectUI@@UIToggleProvider@@$0L@@DirectUI@@6BIProvider@1@@
	??_7?$PatternProvider@VToggleProvider@DirectUI@@UIToggleProvider@@$0L@@DirectUI@@6BRefcountBase@1@@
	??_7?$PatternProvider@VValueProvider@DirectUI@@UIValueProvider@@$0M@@DirectUI@@6BIProvider@1@@
	??_7?$PatternProvider@VValueProvider@DirectUI@@UIValueProvider@@$0M@@DirectUI@@6BRefcountBase@1@@
	??_7AccessibleButton@DirectUI@@6B@
	??_7AnimationStrip@DirectUI@@6B@
	??_7AutoButton@DirectUI@@6B@
	??_7BaseScrollBar@DirectUI@@6B@
	??_7BaseScrollViewer@DirectUI@@6BElement@1@@
	??_7BaseScrollViewer@DirectUI@@6BIElementListener@1@@
	??_7Bind@DirectUI@@6B@
	??_7BorderLayout@DirectUI@@6B@
	??_7Browser@DirectUI@@6B@
	??_7BrowserSelectionProxy@DirectUI@@6B@
	??_7Button@DirectUI@@6B@
	??_7CCAVI@DirectUI@@6B@
	??_7CCBase@DirectUI@@6B@
	??_7CCBaseCheckRadioButton@DirectUI@@6B@
	??_7CCBaseScrollBar@DirectUI@@6BBaseScrollBar@1@@
	??_7CCBaseScrollBar@DirectUI@@6BCCBase@1@@
	??_7CCCheckBox@DirectUI@@6B@
	??_7CCCommandLink@DirectUI@@6B@
	??_7CCHScrollBar@DirectUI@@6BBaseScrollBar@1@@
	??_7CCHScrollBar@DirectUI@@6BCCBase@1@@
	??_7CCListBox@DirectUI@@6B@
	??_7CCListView@DirectUI@@6B@
	??_7CCProgressBar@DirectUI@@6B@
	??_7CCPushButton@DirectUI@@6B@
	??_7CCRadioButton@DirectUI@@6B@
	??_7CCSysLink@DirectUI@@6B@
	??_7CCTrackBar@DirectUI@@6B@
	??_7CCTreeView@DirectUI@@6B@
	??_7CCVScrollBar@DirectUI@@6BBaseScrollBar@1@@
	??_7CCVScrollBar@DirectUI@@6BCCBase@1@@
	??_7CheckBoxGlyph@DirectUI@@6B@
	??_7ClassInfoBase@DirectUI@@6B@
	??_7Clipper@DirectUI@@6B@
	??_7Combobox@DirectUI@@6B@
	??_7DCSurface@DirectUI@@6B@
	??_7DUIXmlParser@DirectUI@@6B@
	??_7DialogElement@DirectUI@@6BHWNDElement@1@@
	??_7DialogElement@DirectUI@@6BIElementListener@1@@
	??_7DuiAccessible@DirectUI@@6BIAccIdentity@@@
	??_7DuiAccessible@DirectUI@@6BIAccessible@@@
	??_7DuiAccessible@DirectUI@@6BIEnumVARIANT@@@
	??_7DuiAccessible@DirectUI@@6BIOleWindow@@@
	??_7DuiAccessible@DirectUI@@6BIServiceProvider@@@
	??_7Edit@DirectUI@@6B@
	??_7Element@DirectUI@@6B@
	??_7ElementProvider@DirectUI@@6BIRawElementProviderAdviseEvents@@@
	??_7ElementProvider@DirectUI@@6BIRawElementProviderFragment@@@
	??_7ElementProvider@DirectUI@@6BIRawElementProviderSimple@@@
	??_7ElementProvider@DirectUI@@6BRefcountBase@1@@
	??_7ElementProxy@DirectUI@@6B@
	??_7ElementWithHWND@DirectUI@@6B@
	??_7ExpandCollapseProvider@DirectUI@@6B@
	??_7ExpandCollapseProvider@DirectUI@@6BIProvider@1@@
	??_7ExpandCollapseProvider@DirectUI@@6BRefcountBase@1@@
	??_7ExpandCollapseProxy@DirectUI@@6B@
	??_7Expandable@DirectUI@@6B@
	??_7Expando@DirectUI@@6B@
	??_7ExpandoButtonGlyph@DirectUI@@6B@
	??_7FillLayout@DirectUI@@6B@
	??_7FlowLayout@DirectUI@@6B@
	??_7FontCache@DirectUI@@6B@
	??_7GridItemProvider@DirectUI@@6B@
	??_7GridItemProvider@DirectUI@@6BIProvider@1@@
	??_7GridItemProvider@DirectUI@@6BRefcountBase@1@@
	??_7GridItemProxy@DirectUI@@6B@
	??_7GridLayout@DirectUI@@6B@
	??_7GridProvider@DirectUI@@6B@
	??_7GridProvider@DirectUI@@6BIProvider@1@@
	??_7GridProvider@DirectUI@@6BRefcountBase@1@@
	??_7GridProxy@DirectUI@@6B@
	??_7HWNDElement@DirectUI@@6B@
	??_7HWNDElementAccessible@DirectUI@@6BIAccIdentity@@@
	??_7HWNDElementAccessible@DirectUI@@6BIAccessible@@@
	??_7HWNDElementAccessible@DirectUI@@6BIEnumVARIANT@@@
	??_7HWNDElementAccessible@DirectUI@@6BIOleWindow@@@
	??_7HWNDElementAccessible@DirectUI@@6BIServiceProvider@@@
	??_7HWNDElementProvider@DirectUI@@6B@
	??_7HWNDElementProvider@DirectUI@@6BIRawElementProviderAdviseEvents@@@
	??_7HWNDElementProvider@DirectUI@@6BIRawElementProviderFragment@@@
	??_7HWNDElementProvider@DirectUI@@6BIRawElementProviderSimple@@@
	??_7HWNDElementProvider@DirectUI@@6BRefcountBase@1@@
	??_7HWNDElementProxy@DirectUI@@6B@
	??_7HWNDHost@DirectUI@@6B@
	??_7HWNDHostAccessible@DirectUI@@6BIAccIdentity@@@
	??_7HWNDHostAccessible@DirectUI@@6BIAccessible@@@
	??_7HWNDHostAccessible@DirectUI@@6BIEnumVARIANT@@@
	??_7HWNDHostAccessible@DirectUI@@6BIOleWindow@@@
	??_7HWNDHostAccessible@DirectUI@@6BIServiceProvider@@@
	??_7HWNDHostClientAccessible@DirectUI@@6BIAccIdentity@@@
	??_7HWNDHostClientAccessible@DirectUI@@6BIAccessible@@@
	??_7HWNDHostClientAccessible@DirectUI@@6BIEnumVARIANT@@@
	??_7HWNDHostClientAccessible@DirectUI@@6BIOleWindow@@@
	??_7HWNDHostClientAccessible@DirectUI@@6BIServiceProvider@@@
	??_7IDataEngine@DirectUI@@6B@
	??_7IDataEntry@DirectUI@@6B@
	??_7IProvider@DirectUI@@6B@
	??_7ISBLeak@DirectUI@@6B@
	??_7IXElementCP@DirectUI@@6B@
	??_7IXProviderCP@DirectUI@@6B@
	??_7InvokeHelper@DirectUI@@6B@
	??_7InvokeProvider@DirectUI@@6B@
	??_7InvokeProvider@DirectUI@@6BIProvider@1@@
	??_7InvokeProvider@DirectUI@@6BRefcountBase@1@@
	??_7InvokeProxy@DirectUI@@6B@
	??_7Layout@DirectUI@@6B@
	??_7Macro@DirectUI@@6B@
	??_7Movie@DirectUI@@6B@
	??_7NativeHWNDHost@DirectUI@@6B@
	??_7Navigator@DirectUI@@6B@
	??_7NavigatorSelectionItemProxy@DirectUI@@6B@
	??_7NineGridLayout@DirectUI@@6B@
	??_7PText@DirectUI@@6B@
	??_7Page@DirectUI@@6B@
	??_7Pages@DirectUI@@6B@
	??_7Progress@DirectUI@@6B@
	??_7ProgressRangeValueProxy@DirectUI@@6B@
	??_7ProviderProxy@DirectUI@@6B@
	??_7Proxy@DirectUI@@6B@
	??_7PushButton@DirectUI@@6B@
	??_7RadioButtonGlyph@DirectUI@@6B@
	??_7RangeValueProvider@DirectUI@@6B@
	??_7RangeValueProvider@DirectUI@@6BIProvider@1@@
	??_7RangeValueProvider@DirectUI@@6BRefcountBase@1@@
	??_7RangeValueProxy@DirectUI@@6B@
	??_7RefPointElement@DirectUI@@6B@
	??_7RefcountBase@DirectUI@@6B@
	??_7RepeatButton@DirectUI@@6B@
	??_7Repeater@DirectUI@@6B@
	??_7RowLayout@DirectUI@@6B@
	??_7ScrollBar@DirectUI@@6BBaseScrollBar@1@@
	??_7ScrollBar@DirectUI@@6BElement@1@@
	??_7ScrollBarRangeValueProxy@DirectUI@@6B@
	??_7ScrollItemProvider@DirectUI@@6B@
	??_7ScrollItemProvider@DirectUI@@6BIProvider@1@@
	??_7ScrollItemProvider@DirectUI@@6BRefcountBase@1@@
	??_7ScrollItemProxy@DirectUI@@6B@
	??_7ScrollProvider@DirectUI@@6B@
	??_7ScrollProvider@DirectUI@@6BIProvider@1@@
	??_7ScrollProvider@DirectUI@@6BRefcountBase@1@@
	??_7ScrollProxy@DirectUI@@6B@
	??_7ScrollViewer@DirectUI@@6BElement@1@@
	??_7ScrollViewer@DirectUI@@6BIElementListener@1@@
	??_7SelectionItemProvider@DirectUI@@6B@
	??_7SelectionItemProvider@DirectUI@@6BIProvider@1@@
	??_7SelectionItemProvider@DirectUI@@6BRefcountBase@1@@
	??_7SelectionItemProxy@DirectUI@@6B@
	??_7SelectionProvider@DirectUI@@6B@
	??_7SelectionProvider@DirectUI@@6BIProvider@1@@
	??_7SelectionProvider@DirectUI@@6BRefcountBase@1@@
	??_7SelectionProxy@DirectUI@@6B@
	??_7Selector@DirectUI@@6B@
	??_7SelectorNoDefault@DirectUI@@6B@
	??_7SelectorSelectionItemProxy@DirectUI@@6B@
	??_7SelectorSelectionProxy@DirectUI@@6B@
	??_7ShellBorderLayout@DirectUI@@6B@
	??_7StyleSheet@DirectUI@@6B@
	??_7StyledScrollViewer@DirectUI@@6BElement@1@@
	??_7StyledScrollViewer@DirectUI@@6BIElementListener@1@@
	??_7Surface@DirectUI@@6B@
	??_7TableItemProvider@DirectUI@@6B@
	??_7TableItemProvider@DirectUI@@6BIProvider@1@@
	??_7TableItemProvider@DirectUI@@6BRefcountBase@1@@
	??_7TableItemProxy@DirectUI@@6B@
	??_7TableLayout@DirectUI@@6B@
	??_7TableProvider@DirectUI@@6B@
	??_7TableProvider@DirectUI@@6BIProvider@1@@
	??_7TableProvider@DirectUI@@6BRefcountBase@1@@
	??_7TableProxy@DirectUI@@6B@
	??_7TaskPage@DirectUI@@6BIElementListener@1@@
	??_7TaskPage@DirectUI@@6BIXProviderCP@1@@
	??_7TextGraphic@DirectUI@@6B@
	??_7Thumb@DirectUI@@6B@
	??_7ToggleProvider@DirectUI@@6B@
	??_7ToggleProvider@DirectUI@@6BIProvider@1@@
	??_7ToggleProvider@DirectUI@@6BRefcountBase@1@@
	??_7ToggleProxy@DirectUI@@6B@
	??_7UnknownElement@DirectUI@@6B@
	??_7ValueProvider@DirectUI@@6B@
	??_7ValueProvider@DirectUI@@6BIProvider@1@@
	??_7ValueProvider@DirectUI@@6BRefcountBase@1@@
	??_7ValueProxy@DirectUI@@6B@
	??_7VerticalFlowLayout@DirectUI@@6B@
	??_7Viewer@DirectUI@@6B@
	??_7XBaby@DirectUI@@6BHWNDElement@1@@
	??_7XBaby@DirectUI@@6BIElementListener@1@@
	??_7XElement@DirectUI@@6BHWNDHost@1@@
	??_7XElement@DirectUI@@6BIXElementCP@1@@
	??_7XProvider@DirectUI@@6B@
	??_7XResourceProvider@DirectUI@@6B@
	??_FCCBase@DirectUI@@QAEXXZ
	??_FCCBaseScrollBar@DirectUI@@QAEXXZ
	??_FCCCheckBox@DirectUI@@QAEXXZ
	??_FCCCommandLink@DirectUI@@QAEXXZ
	??_FCCPushButton@DirectUI@@QAEXXZ
	??_FCCTreeView@DirectUI@@QAEXXZ
	?AbsorbsShortcutProp@Element@DirectUI@@SGPBUPropertyInfo@2@XZ
	?AccDefActionProp@Element@DirectUI@@SGPBUPropertyInfo@2@XZ
	?AccDescProp@Element@DirectUI@@SGPBUPropertyInfo@2@XZ
	?AccHelpProp@Element@DirectUI@@SGPBUPropertyInfo@2@XZ
	?AccItemStatusProp@Element@DirectUI@@SGPBUPropertyInfo@2@XZ
	?AccItemTypeProp@Element@DirectUI@@SGPBUPropertyInfo@2@XZ
	?AccNameProp@Element@DirectUI@@SGPBUPropertyInfo@2@XZ
	?AccNavigate@DuiAccessible@DirectUI@@SGJPAVElement@2@JPAPAV32@@Z
	?AccRoleProp@Element@DirectUI@@SGPBUPropertyInfo@2@XZ
	?AccStateProp@Element@DirectUI@@SGPBUPropertyInfo@2@XZ
	?AccValueProp@Element@DirectUI@@SGPBUPropertyInfo@2@XZ
	?AcceleratorKeyProperty@Schema@DirectUI@@2HA
	?Access@?$SafeArrayAccessor@H@DirectUI@@QAEJPAUtagSAFEARRAY@@G@Z
	?AccessKeyProperty@Schema@DirectUI@@2HA
	?AccessibleProp@Element@DirectUI@@SGPBUPropertyInfo@2@XZ
	?ActionInitiated@Navigator@DirectUI@@SG?AVUID@@XZ
	?ActivateTooltip@Element@DirectUI@@MAEXPAV12@K@Z
	?ActivateTooltip@HWNDElement@DirectUI@@UAEXPAVElement@2@K@Z
	?ActiveProp@Element@DirectUI@@SGPBUPropertyInfo@2@XZ
	?ActualReferencePointProp@RefPointElement@DirectUI@@SGPBUPropertyInfo@2@XZ
	?Add@BaseScrollViewer@DirectUI@@UAEJPAPAVElement@2@I@Z
	?Add@Element@DirectUI@@QAEJPAV12@@Z
	?Add@Element@DirectUI@@QAEJPAV12@P6AHPBX1@Z@Z
	?Add@Element@DirectUI@@UAEJPAPAV12@I@Z
	?Add@ElementProviderManager@DirectUI@@SGJPAVElementProvider@2@@Z
	?Add@Expando@DirectUI@@UAEJPAPAVElement@2@I@Z
	?Add@LinkedList@DirectUI@@QAEXPAVLinkedListNode@2@@Z
	?Add@Macro@DirectUI@@UAEJPAPAVElement@2@I@Z
	?Add@Pages@DirectUI@@UAEJPAPAVElement@2@I@Z
	?AddChild@ClassInfoBase@DirectUI@@UAEXXZ
	?AddChildren@ScrollViewer@DirectUI@@MAEJXZ
	?AddChildren@StyledScrollViewer@DirectUI@@MAEJXZ
	?AddListener@Element@DirectUI@@QAEJPAUIElementListener@2@@Z
	?AddRectangleChange@EventManager@DirectUI@@CGJPAVElement@2@_N1@Z
	?AddRef@ClassInfoBase@DirectUI@@UAEXXZ
	?AddRef@DuiAccessible@DirectUI@@UAGKXZ
	?AddRef@Element@DirectUI@@QAGKXZ
	?AddRef@ElementProvider@DirectUI@@UAGKXZ
	?AddRef@ExpandCollapseProvider@DirectUI@@UAGKXZ
	?AddRef@GridItemProvider@DirectUI@@UAGKXZ
	?AddRef@GridProvider@DirectUI@@UAGKXZ
	?AddRef@HWNDElementProvider@DirectUI@@UAGKXZ
	?AddRef@InvokeProvider@DirectUI@@UAGKXZ
	?AddRef@RangeValueProvider@DirectUI@@UAGKXZ
	?AddRef@RefcountBase@DirectUI@@QAEJXZ
	?AddRef@ScrollItemProvider@DirectUI@@UAGKXZ
	?AddRef@ScrollProvider@DirectUI@@UAGKXZ
	?AddRef@SelectionItemProvider@DirectUI@@UAGKXZ
	?AddRef@SelectionProvider@DirectUI@@UAGKXZ
	?AddRef@TableItemProvider@DirectUI@@UAGKXZ
	?AddRef@TableProvider@DirectUI@@UAGKXZ
	?AddRef@ToggleProvider@DirectUI@@UAGKXZ
	?AddRef@Value@DirectUI@@QAEXXZ
	?AddRef@ValueProvider@DirectUI@@UAGKXZ
	?AddRef@XProvider@DirectUI@@UAGKXZ
	?AddRulesToStyleSheet@DUIXmlParser@DirectUI@@IAEJPAUIXmlReader@@PAVStyleSheet@2@PBGPAV?$DynamicArray@UXMLParserCond@DirectUI@@$0A@@2@PAV?$DynamicArray@PAG$0A@@2@@Z
	?AddString@CCListBox@DirectUI@@QAEHPBG@Z
	?AddString@Combobox@DirectUI@@QAEHPBG@Z
	?AddToSelection@NavigatorSelectionItemProxy@DirectUI@@AAEJPAVBrowser@2@@Z
	?AddToSelection@SelectionItemProvider@DirectUI@@UAGJXZ
	?AddToSelection@SelectorSelectionItemProxy@DirectUI@@AAEJXZ
	?AdvanceFrame@AnimationStrip@DirectUI@@IAEXXZ
	?AdvanceFrame@Movie@DirectUI@@SG?AVUID@@XZ
	?AdviseEventAdded@ElementProvider@DirectUI@@UAGJHPAUtagSAFEARRAY@@@Z
	?AdviseEventAdded@EventManager@DirectUI@@SGJHPAUtagSAFEARRAY@@@Z
	?AdviseEventRemoved@ElementProvider@DirectUI@@UAGJHPAUtagSAFEARRAY@@@Z
	?AdviseEventRemoved@EventManager@DirectUI@@SGJHPAUtagSAFEARRAY@@@Z
	?AlphaProp@Element@DirectUI@@SGPBUPropertyInfo@2@XZ
	?AnimationChange@Element@DirectUI@@SG?AVUID@@XZ
	?AnimationProp@Element@DirectUI@@SGPBUPropertyInfo@2@XZ
	?ApplySinkRegion@HWNDHost@DirectUI@@AAEXPBUtagRECT@@_N@Z
	?Arrow@Expando@DirectUI@@KGGXZ
	?AssertPIZeroRef@ClassInfoBase@DirectUI@@UBEXXZ
	?AsyncContentLoadedEvent@Schema@DirectUI@@2HA
	?AsyncDestroyMsg@NativeHWNDHost@DirectUI@@SGIXZ
	?Attach@Layout@DirectUI@@UAEXPAVElement@2@@Z
	?AttachCtrlSubclassProc@HWNDHost@DirectUI@@KGXPAUHWND__@@@Z
	?AutoGroupingProp@CCRadioButton@DirectUI@@SGPBUPropertyInfo@2@XZ
	?AutoStartProp@Movie@DirectUI@@SGPBUPropertyInfo@2@XZ
	?AutoStopProp@Movie@DirectUI@@SGPBUPropertyInfo@2@XZ
	?AutomationFocusChangedEvent@Schema@DirectUI@@2HA
	?AutomationIdProperty@Schema@DirectUI@@2HA
	?AutomationPropertyChangedEvent@Schema@DirectUI@@2HA
	?BackgroundOwnerIDProp@HWNDHost@DirectUI@@SGPBUPropertyInfo@2@XZ
	?BackgroundProp@Element@DirectUI@@SGPBUPropertyInfo@2@XZ
	?BorderColorProp@Element@DirectUI@@SGPBUPropertyInfo@2@XZ
	?BorderStyleProp@Element@DirectUI@@SGPBUPropertyInfo@2@XZ
	?BorderThicknessProp@Element@DirectUI@@SGPBUPropertyInfo@2@XZ
	?BoundingRectangleProperty@Schema@DirectUI@@2HA
	?BroadcastEvent@Element@DirectUI@@QAEXPAUEvent@2@@Z
	?BuildCacheInfo@FlowLayout@DirectUI@@IAE?AUtagSIZE@@PAVElement@2@HHPAVSurface@2@_N@Z
	?BuildCacheInfo@VerticalFlowLayout@DirectUI@@IAE?AUtagSIZE@@PAVElement@2@HHPAVSurface@2@_N@Z
	?BuildElement@Macro@DirectUI@@MAEJXZ
	?BuildElement@Repeater@DirectUI@@MAEJXZ
	?ButtonClassAcceptsEnterKeyProp@DialogElement@DirectUI@@SGPBUPropertyInfo@2@XZ
	?ButtonControlType@Schema@DirectUI@@2HA
	?CacheParser@XBaby@DirectUI@@QAEXPAVDUIXmlParser@2@@Z
	?CalendarControlType@Schema@DirectUI@@2HA
	?CanSetFocus@HWNDElement@DirectUI@@UAE_NXZ
	?CanSetFocus@XBaby@DirectUI@@UAE_NXZ
	?CanSetFocus@XProvider@DirectUI@@UAGJPA_N@Z
	?CaptureCallstackFrames@CallstackTracker@DirectUI@@QAEHXZ
	?CapturedProp@Button@DirectUI@@SGPBUPropertyInfo@2@XZ
	?CheckBoxControlType@Schema@DirectUI@@2HA
	?CheckScroll@BaseScrollViewer@DirectUI@@AAEXPAVBaseScrollBar@2@HHH@Z
	?ChildrenProp@Element@DirectUI@@SGPBUPropertyInfo@2@XZ
	?ClassExist@ClassInfoBase@DirectUI@@SG_NPAPAUIClassInfo@2@PBQBUPropertyInfo@2@IPAU32@PAUHINSTANCE__@@PBG_N@Z
	?ClassNameProperty@Schema@DirectUI@@2HA
	?ClassProp@Element@DirectUI@@SGPBUPropertyInfo@2@XZ
	?ClearCacheDirty@Layout@DirectUI@@IAEXXZ
	?ClearParser@DUIFactory@DirectUI@@AAEXXZ
	?Click@Button@DirectUI@@SG?AVUID@@XZ
	?ClickDefaultButton@DialogElement@DirectUI@@UAE_NXZ
	?ClickDefaultButton@XProvider@DirectUI@@UAGHXZ
	?ClickablePointProperty@Schema@DirectUI@@2HA
	?Clipper@Expando@DirectUI@@KGGXZ
	?Clone@DuiAccessible@DirectUI@@UAGJPAPAUIEnumVARIANT@@@Z
	?Clone@HWNDHostAccessible@DirectUI@@UAGJPAPAUIEnumVARIANT@@@Z
	?Close@ElementProviderManager@DirectUI@@SGXXZ
	?Close@EventManager@DirectUI@@SGXXZ
	?Close@InvokeManager@DirectUI@@SGXXZ
	?CloseThread@InvokeManager@DirectUI@@SGXXZ
	?Collapse@ExpandCollapseProvider@DirectUI@@UAGJXZ
	?ComboBoxControlType@Schema@DirectUI@@2HA
	?CompositedTextProp@Element@DirectUI@@SGPBUPropertyInfo@2@XZ
	?CompositingQualityProp@Movie@DirectUI@@SGPBUPropertyInfo@2@XZ
	?CompositionChange@HWNDElement@DirectUI@@SG?AVUID@@XZ
	?ConnectProp@Bind@DirectUI@@SGPBUPropertyInfo@2@XZ
	?ContentAlignProp@Element@DirectUI@@SGPBUPropertyInfo@2@XZ
	?ContentProp@Element@DirectUI@@SGPBUPropertyInfo@2@XZ
	?Context@Button@DirectUI@@SG?AVUID@@XZ
	?ContextSensitiveHelp@DuiAccessible@DirectUI@@UAGJH@Z
	?ContextSensitiveHelp@HWNDHostAccessible@DirectUI@@UAGJH@Z
	?ControlTypeProperty@Schema@DirectUI@@2HA
	?Count@?$SafeArrayAccessor@H@DirectUI@@QAEHXZ
	?Create@?$PatternProvider@VExpandCollapseProvider@DirectUI@@UIExpandCollapseProvider@@$00@DirectUI@@SGJPAVElementProvider@2@PAPAUIUnknown@@@Z
	?Create@?$PatternProvider@VGridItemProvider@DirectUI@@UIGridItemProvider@@$01@DirectUI@@SGJPAVElementProvider@2@PAPAUIUnknown@@@Z
	?Create@?$PatternProvider@VGridProvider@DirectUI@@UIGridProvider@@$02@DirectUI@@SGJPAVElementProvider@2@PAPAUIUnknown@@@Z
	?Create@?$PatternProvider@VInvokeProvider@DirectUI@@UIInvokeProvider@@$0A@@DirectUI@@SGJPAVElementProvider@2@PAPAUIUnknown@@@Z
	?Create@?$PatternProvider@VRangeValueProvider@DirectUI@@UIRangeValueProvider@@$03@DirectUI@@SGJPAVElementProvider@2@PAPAUIUnknown@@@Z
	?Create@?$PatternProvider@VScrollItemProvider@DirectUI@@UIScrollItemProvider@@$05@DirectUI@@SGJPAVElementProvider@2@PAPAUIUnknown@@@Z
	?Create@?$PatternProvider@VScrollProvider@DirectUI@@UIScrollProvider@@$04@DirectUI@@SGJPAVElementProvider@2@PAPAUIUnknown@@@Z
	?Create@?$PatternProvider@VSelectionItemProvider@DirectUI@@UISelectionItemProvider@@$06@DirectUI@@SGJPAVElementProvider@2@PAPAUIUnknown@@@Z
	?Create@?$PatternProvider@VSelectionProvider@DirectUI@@UISelectionProvider@@$07@DirectUI@@SGJPAVElementProvider@2@PAPAUIUnknown@@@Z
	?Create@?$PatternProvider@VTableItemProvider@DirectUI@@UITableItemProvider@@$09@DirectUI@@SGJPAVElementProvider@2@PAPAUIUnknown@@@Z
	?Create@?$PatternProvider@VTableProvider@DirectUI@@UITableProvider@@$08@DirectUI@@SGJPAVElementProvider@2@PAPAUIUnknown@@@Z
	?Create@?$PatternProvider@VToggleProvider@DirectUI@@UIToggleProvider@@$0L@@DirectUI@@SGJPAVElementProvider@2@PAPAUIUnknown@@@Z
	?Create@?$PatternProvider@VValueProvider@DirectUI@@UIValueProvider@@$0M@@DirectUI@@SGJPAVElementProvider@2@PAPAUIUnknown@@@Z
	?Create@AccessibleButton@DirectUI@@SGJPAVElement@2@PAKPAPAV32@@Z
	?Create@AnimationStrip@DirectUI@@SGJPAVElement@2@PAKPAPAV32@@Z
	?Create@AutoButton@DirectUI@@SGJPAVElement@2@PAKPAPAV32@@Z
	?Create@Bind@DirectUI@@SGJPAVElement@2@PAKPAPAV32@@Z
	?Create@BorderLayout@DirectUI@@SGJHPAHPAPAVValue@2@@Z
	?Create@BorderLayout@DirectUI@@SGJPAPAVLayout@2@@Z
	?Create@Browser@DirectUI@@SGJPAVElement@2@PAKPAPAV32@@Z
	?Create@Button@DirectUI@@SGJIPAVElement@2@PAKPAPAV32@@Z
	?Create@Button@DirectUI@@SGJPAVElement@2@PAKPAPAV32@@Z
	?Create@CCAVI@DirectUI@@SGJIPAVElement@2@PAKPAPAV32@@Z
	?Create@CCAVI@DirectUI@@SGJPAVElement@2@PAKPAPAV32@@Z
	?Create@CCBase@DirectUI@@SGJIPAVElement@2@PAKPAPAV32@@Z
	?Create@CCBase@DirectUI@@SGJPAVElement@2@PAKPAPAV32@@Z
	?Create@CCCheckBox@DirectUI@@SGJIPAVElement@2@PAKPAPAV32@@Z
	?Create@CCCheckBox@DirectUI@@SGJPAVElement@2@PAKPAPAV32@@Z
	?Create@CCCommandLink@DirectUI@@SGJIPAVElement@2@PAKPAPAV32@@Z
	?Create@CCCommandLink@DirectUI@@SGJPAVElement@2@PAKPAPAV32@@Z
	?Create@CCHScrollBar@DirectUI@@SGJIPAVElement@2@PAKPAPAV32@@Z
	?Create@CCHScrollBar@DirectUI@@SGJPAVElement@2@PAKPAPAV32@@Z
	?Create@CCListBox@DirectUI@@SGJIPAVElement@2@PAKPAPAV32@@Z
	?Create@CCListBox@DirectUI@@SGJPAVElement@2@PAKPAPAV32@@Z
	?Create@CCListView@DirectUI@@SGJIPAVElement@2@PAKPAPAV32@@Z
	?Create@CCListView@DirectUI@@SGJPAVElement@2@PAKPAPAV32@@Z
	?Create@CCProgressBar@DirectUI@@SGJIPAVElement@2@PAKPAPAV32@@Z
	?Create@CCProgressBar@DirectUI@@SGJPAVElement@2@PAKPAPAV32@@Z
	?Create@CCPushButton@DirectUI@@SGJIPAVElement@2@PAKPAPAV32@@Z
	?Create@CCPushButton@DirectUI@@SGJPAVElement@2@PAKPAPAV32@@Z
	?Create@CCRadioButton@DirectUI@@SGJIPAVElement@2@PAKPAPAV32@@Z
	?Create@CCRadioButton@DirectUI@@SGJPAVElement@2@PAKPAPAV32@@Z
	?Create@CCSysLink@DirectUI@@SGJIPAVElement@2@PAKPAPAV32@@Z
	?Create@CCSysLink@DirectUI@@SGJPAVElement@2@PAKPAPAV32@@Z
	?Create@CCTrackBar@DirectUI@@SGJIPAVElement@2@PAKPAPAV32@@Z
	?Create@CCTrackBar@DirectUI@@SGJPAVElement@2@PAKPAPAV32@@Z
	?Create@CCTreeView@DirectUI@@SGJIPAVElement@2@PAKPAPAV32@@Z
	?Create@CCTreeView@DirectUI@@SGJPAVElement@2@PAKPAPAV32@@Z
	?Create@CCVScrollBar@DirectUI@@SGJIPAVElement@2@PAKPAPAV32@@Z
	?Create@CCVScrollBar@DirectUI@@SGJPAVElement@2@PAKPAPAV32@@Z
	?Create@CheckBoxGlyph@DirectUI@@SGJIPAVElement@2@PAKPAPAV32@@Z
	?Create@CheckBoxGlyph@DirectUI@@SGJPAVElement@2@PAKPAPAV32@@Z
	?Create@Clipper@DirectUI@@SGJPAVElement@2@PAKPAPAV32@@Z
	?Create@Combobox@DirectUI@@SGJIPAVElement@2@PAKPAPAV32@@Z
	?Create@Combobox@DirectUI@@SGJPAVElement@2@PAKPAPAV32@@Z
	?Create@DUIXmlParser@DirectUI@@SGJPAPAV12@P6GPAVValue@2@PBGPAX@Z2P6GX11H2@Z2@Z
	?Create@DialogElement@DirectUI@@SGJPAUHWND__@@_NIPAVElement@2@PAKPAPAV42@@Z
	?Create@DuiAccessible@DirectUI@@SGJPAVElement@2@PAPAV12@@Z
	?Create@Edit@DirectUI@@SGJIPAVElement@2@PAKPAPAV32@@Z
	?Create@Edit@DirectUI@@SGJPAVElement@2@PAKPAPAV32@@Z
	?Create@Element@DirectUI@@SGJIPAV12@PAKPAPAV12@@Z
	?Create@ElementProvider@DirectUI@@SGJPAVElement@2@PAVInvokeHelper@2@PAPAV12@@Z
	?Create@ElementProxy@DirectUI@@SGPAV12@PAVElement@2@@Z
	?Create@ElementWithHWND@DirectUI@@SGJPAVElement@2@PAKPAPAV32@@Z
	?Create@ExpandCollapseProxy@DirectUI@@SGPAV12@PAVElement@2@@Z
	?Create@Expandable@DirectUI@@SGJPAVElement@2@PAKPAPAV32@@Z
	?Create@Expando@DirectUI@@SGJPAVElement@2@PAKPAPAV32@@Z
	?Create@ExpandoButtonGlyph@DirectUI@@SGJIPAVElement@2@PAKPAPAV32@@Z
	?Create@ExpandoButtonGlyph@DirectUI@@SGJPAVElement@2@PAKPAPAV32@@Z
	?Create@FillLayout@DirectUI@@SGJHPAHPAPAVValue@2@@Z
	?Create@FillLayout@DirectUI@@SGJPAPAVLayout@2@@Z
	?Create@FlowLayout@DirectUI@@SGJHPAHPAPAVValue@2@@Z
	?Create@FlowLayout@DirectUI@@SGJ_NIIIPAPAVLayout@2@@Z
	?Create@GridItemProxy@DirectUI@@SGPAV12@PAVElement@2@@Z
	?Create@GridLayout@DirectUI@@SGJHHPAPAVLayout@2@@Z
	?Create@GridLayout@DirectUI@@SGJHPAHPAPAVValue@2@@Z
	?Create@GridProxy@DirectUI@@SGPAV12@PAVElement@2@@Z
	?Create@HWNDElement@DirectUI@@SGJPAUHWND__@@_NIPAVElement@2@PAKPAPAV42@@Z
	?Create@HWNDElementAccessible@DirectUI@@SGJPAVHWNDElement@2@PAPAVDuiAccessible@2@@Z
	?Create@HWNDElementProvider@DirectUI@@SGJPAVHWNDElement@2@PAVInvokeHelper@2@PAPAV12@@Z
	?Create@HWNDElementProxy@DirectUI@@SGPAV12@PAVHWNDElement@2@@Z
	?Create@HWNDHost@DirectUI@@SGJIIPAVElement@2@PAKPAPAV32@@Z
	?Create@HWNDHost@DirectUI@@SGJPAVElement@2@PAKPAPAV32@@Z
	?Create@HWNDHostAccessible@DirectUI@@SGJPAVElement@2@PAUIAccessible@@PAPAVDuiAccessible@2@@Z
	?Create@HWNDHostClientAccessible@DirectUI@@SGJPAVElement@2@PAUIAccessible@@PAPAVDuiAccessible@2@@Z
	?Create@InvokeProxy@DirectUI@@SGPAV12@PAVElement@2@@Z
	?Create@Layout@DirectUI@@SGJPAPAV12@@Z
	?Create@Macro@DirectUI@@SGJPAVElement@2@PAKPAPAV32@@Z
	?Create@Movie@DirectUI@@SGJIPAVElement@2@PAKPAPAV32@@Z
	?Create@Movie@DirectUI@@SGJPAVElement@2@PAKPAPAV32@@Z
	?Create@NativeHWNDHost@DirectUI@@SGJPBG0PAUHWND__@@PAUHICON__@@HHHHHHPAUHINSTANCE__@@IPAPAV12@@Z
	?Create@NativeHWNDHost@DirectUI@@SGJPBGPAUHWND__@@PAUHICON__@@HHHHHHIPAPAV12@@Z
	?Create@Navigator@DirectUI@@SGJPAVElement@2@PAKPAPAV32@@Z
	?Create@NineGridLayout@DirectUI@@SGJHPAHPAPAVValue@2@@Z
	?Create@NineGridLayout@DirectUI@@SGJPAPAVLayout@2@@Z
	?Create@PText@DirectUI@@SGJPAVElement@2@PAKPAPAV32@@Z
	?Create@Page@DirectUI@@SGJPAVElement@2@PAKPAPAV32@@Z
	?Create@Pages@DirectUI@@SGJPAVElement@2@PAKPAPAV32@@Z
	?Create@Progress@DirectUI@@SGJPAVElement@2@PAKPAPAV32@@Z
	?Create@PushButton@DirectUI@@SGJPAVElement@2@PAKPAPAV32@@Z
	?Create@RadioButtonGlyph@DirectUI@@SGJIPAVElement@2@PAKPAPAV32@@Z
	?Create@RadioButtonGlyph@DirectUI@@SGJPAVElement@2@PAKPAPAV32@@Z
	?Create@RangeValueProxy@DirectUI@@SGPAV12@PAVElement@2@@Z
	?Create@RefPointElement@DirectUI@@SGJIPAVElement@2@PAKPAPAV32@@Z
	?Create@RefPointElement@DirectUI@@SGJPAVElement@2@PAKPAPAV32@@Z
	?Create@RepeatButton@DirectUI@@SGJIPAVElement@2@PAKPAPAV32@@Z
	?Create@RepeatButton@DirectUI@@SGJPAVElement@2@PAKPAPAV32@@Z
	?Create@Repeater@DirectUI@@SGJPAVElement@2@PAKPAPAV32@@Z
	?Create@RowLayout@DirectUI@@SGJHIIPAPAVLayout@2@@Z
	?Create@RowLayout@DirectUI@@SGJHPAHPAPAVValue@2@@Z
	?Create@RowLayout@DirectUI@@SGJIIPAPAVLayout@2@@Z
	?Create@ScrollBar@DirectUI@@SGJPAVElement@2@PAKPAPAV32@@Z
	?Create@ScrollBar@DirectUI@@SGJ_NPAVElement@2@PAKPAPAV32@@Z
	?Create@ScrollItemProxy@DirectUI@@SGPAV12@PAVElement@2@@Z
	?Create@ScrollProxy@DirectUI@@SGPAV12@PAVElement@2@@Z
	?Create@ScrollViewer@DirectUI@@SGJPAVElement@2@PAKPAPAV32@@Z
	?Create@SelectionItemProxy@DirectUI@@SGPAV12@PAVElement@2@@Z
	?Create@SelectionProxy@DirectUI@@SGPAV12@PAVElement@2@@Z
	?Create@Selector@DirectUI@@SGJPAVElement@2@PAKPAPAV32@@Z
	?Create@SelectorNoDefault@DirectUI@@SGJPAVElement@2@PAKPAPAV32@@Z
	?Create@ShellBorderLayout@DirectUI@@SGJHPAHPAPAVValue@2@@Z
	?Create@ShellBorderLayout@DirectUI@@SGJPAPAVLayout@2@@Z
	?Create@StyleSheet@DirectUI@@SGJPAPAV12@@Z
	?Create@StyledScrollViewer@DirectUI@@SGJPAVElement@2@PAKPAPAV32@@Z
	?Create@TableItemProxy@DirectUI@@SGPAV12@PAVElement@2@@Z
	?Create@TableLayout@DirectUI@@SGJHPAHPAPAVValue@2@@Z
	?Create@TableProxy@DirectUI@@SGPAV12@PAVElement@2@@Z
	?Create@TextGraphic@DirectUI@@SGJPAVElement@2@PAKPAPAV32@@Z
	?Create@Thumb@DirectUI@@SGJIPAVElement@2@PAKPAPAV32@@Z
	?Create@Thumb@DirectUI@@SGJPAVElement@2@PAKPAPAV32@@Z
	?Create@ToggleProxy@DirectUI@@SGPAV12@PAVElement@2@@Z
	?Create@UnknownElement@DirectUI@@SGJIPAVElement@2@PAKPAPAV32@@Z
	?Create@UnknownElement@DirectUI@@SGJPAVElement@2@PAKPAPAV32@@Z
	?Create@ValueProxy@DirectUI@@SGPAV12@PAVElement@2@@Z
	?Create@VerticalFlowLayout@DirectUI@@SGJHPAHPAPAVValue@2@@Z
	?Create@VerticalFlowLayout@DirectUI@@SGJ_NIIIPAPAVLayout@2@@Z
	?Create@Viewer@DirectUI@@SGJPAVElement@2@PAKPAPAV32@@Z
	?Create@XBaby@DirectUI@@SGJPAVElement@2@PAKPAPAV32@@Z
	?Create@XBaby@DirectUI@@SGJPAVIXElementCP@2@PAVXProvider@2@PAUHWND__@@PAVElement@2@PAKPAPAV62@@Z
	?Create@XElement@DirectUI@@SGJIPAVElement@2@PAKPAPAV32@@Z
	?Create@XElement@DirectUI@@SGJPAVElement@2@PAKPAPAV32@@Z
	?Create@XHost@DirectUI@@SGJPAVIXElementCP@2@PAPAV12@@Z
	?Create@XProvider@DirectUI@@SGJPAVElement@2@PAVIXProviderCP@2@PAPAV12@@Z
	?Create@XResourceProvider@DirectUI@@SGJPAPAV12@@Z
	?Create@XResourceProvider@DirectUI@@SGJPAUHINSTANCE__@@PBG11PAPAV12@@Z
	?CreateAccNameLabel@HWNDHost@DirectUI@@IAEPAUHWND__@@PAU3@@Z
	?CreateAtom@Value@DirectUI@@SGPAV12@G@Z
	?CreateAtom@Value@DirectUI@@SGPAV12@PBG@Z
	?CreateBool@Value@DirectUI@@SGPAV12@_N@Z
	?CreateButtons@ScrollBar@DirectUI@@MAEJXZ
	?CreateColor@Value@DirectUI@@SGPAV12@K@Z
	?CreateColor@Value@DirectUI@@SGPAV12@KKE@Z
	?CreateColor@Value@DirectUI@@SGPAV12@KKKE@Z
	?CreateCursor@Value@DirectUI@@SGPAV12@PAUHICON__@@@Z
	?CreateCursor@Value@DirectUI@@SGPAV12@PBG@Z
	?CreateDFCFill@Value@DirectUI@@SGPAV12@II@Z
	?CreateDTBFill@Value@DirectUI@@SGPAV12@PBGHH@Z
	?CreateDUI@XProvider@DirectUI@@UAGJPAVIXElementCP@2@PAPAUHWND__@@@Z
	?CreateDUICP@TaskPage@DirectUI@@EAEJPAVHWNDElement@2@PAUHWND__@@1PAPAVElement@2@PAPAVDUIXmlParser@2@@Z
	?CreateDUICP@XResourceProvider@DirectUI@@UAEJPAVHWNDElement@2@PAUHWND__@@1PAPAVElement@2@PAPAVDUIXmlParser@2@@Z
	?CreateElement@DUIXmlParser@DirectUI@@QAEJPBGPAVElement@2@1PAKPAPAV32@@Z
	?CreateElementList@Value@DirectUI@@SGPAV12@PAV?$DynamicArray@PAVElement@DirectUI@@$0A@@2@@Z
	?CreateElementRef@Value@DirectUI@@SGPAV12@PAVElement@2@@Z
	?CreateEncodedString@Value@DirectUI@@SGPAV12@PBG@Z
	?CreateExpression@Value@DirectUI@@SGPAV12@PAVExpression@2@@Z
	?CreateFill@Value@DirectUI@@SGPAV12@ABUFill@2@@Z
	?CreateGraphic@Value@DirectUI@@SGPAV12@PAUHBITMAP__@@EI_N11@Z
	?CreateGraphic@Value@DirectUI@@SGPAV12@PAUHENHMETAFILE__@@0@Z
	?CreateGraphic@Value@DirectUI@@SGPAV12@PAUHICON__@@_N11@Z
	?CreateGraphic@Value@DirectUI@@SGPAV12@PBGEIGGPAUHINSTANCE__@@_N2@Z
	?CreateGraphic@Value@DirectUI@@SGPAV12@PBGGGPAUHINSTANCE__@@_N2@Z
	?CreateHWND@CCBase@DirectUI@@UAEPAUHWND__@@PAU3@@Z
	?CreateHWND@CCBaseScrollBar@DirectUI@@UAEPAUHWND__@@PAU3@@Z
	?CreateHWND@Combobox@DirectUI@@UAEPAUHWND__@@PAU3@@Z
	?CreateHWND@Edit@DirectUI@@MAEPAUHWND__@@PAU3@@Z
	?CreateHWND@Edit@DirectUI@@MAEPAUHWND__@@PAU3@_N@Z
	?CreateHWND@HWNDHost@DirectUI@@MAEPAUHWND__@@PAU3@@Z
	?CreateHWND@XElement@DirectUI@@UAEPAUHWND__@@PAU3@@Z
	?CreateInt@Value@DirectUI@@SGPAV12@H@Z
	?CreateLayout@DUIXmlParser@DirectUI@@IAEJPBUExprNode@ParserTools@2@P6GJHPAHPAPAVValue@2@@Z@Z
	?CreateLayout@Value@DirectUI@@SGPAV12@PAVLayout@2@@Z
	?CreateParser@DUIFactory@DirectUI@@QAEJXZ
	?CreateParser@XProvider@DirectUI@@QAEJPAPAVDUIXmlParser@2@@Z
	?CreateParserCP@TaskPage@DirectUI@@EAEJPAPAVDUIXmlParser@2@@Z
	?CreateParserCP@XResourceProvider@DirectUI@@UAEJPAPAVDUIXmlParser@2@@Z
	?CreatePatternProvider@Schema@DirectUI@@SGJW4Pattern@12@PAVElementProvider@2@PAPAUIUnknown@@@Z
	?CreatePoint@Value@DirectUI@@SGPAV12@HH@Z
	?CreateRect@Value@DirectUI@@SGPAV12@HHHH@Z
	?CreateScrollBars@ScrollViewer@DirectUI@@MAEJXZ
	?CreateScrollBars@StyledScrollViewer@DirectUI@@MAEJXZ
	?CreateSize@Value@DirectUI@@SGPAV12@HH@Z
	?CreateString@Value@DirectUI@@SGPAV12@PBGPAUHINSTANCE__@@@Z
	?CreateStyleParser@HWNDElement@DirectUI@@UAEJPAPAVDUIXmlParser@2@@Z
	?CreateStyleParser@XBaby@DirectUI@@UAEJPAPAVDUIXmlParser@2@@Z
	?CreateStyleSheet@DUIXmlParser@DirectUI@@IAEJPAUIXmlReader@@PBGPAPAVStyleSheet@2@@Z
	?CreateStyleSheet@Value@DirectUI@@SGPAV12@PAVStyleSheet@2@@Z
	?CreateXmlReader@DUIXmlParser@DirectUI@@IAEJPAPAUIXmlReader@@@Z
	?CreateXmlReaderFromHGLOBAL@DUIXmlParser@DirectUI@@IAEJPAXPAPAUIXmlReader@@@Z
	?CreateXmlReaderInputWithEncodingName@DUIXmlParser@DirectUI@@IAEJPAUIStream@@PBGPAPAUIUnknown@@@Z
	?CtrlSubclassProc@HWNDHost@DirectUI@@KGJPAUHWND__@@IIJ@Z
	?CultureProperty@Schema@DirectUI@@2HA
	?CursorProp@Element@DirectUI@@SGPBUPropertyInfo@2@XZ
	?CustomControlType@Schema@DirectUI@@2HA
	?CustomProp@Element@DirectUI@@SGPBUPropertyInfo@2@XZ
	?DPIProp@Element@DirectUI@@SGPBUPropertyInfo@2@XZ
	?DUICreatePropertySheetPage@TaskPage@DirectUI@@QAEJPAUHINSTANCE__@@@Z
	?DataGridControlType@Schema@DirectUI@@2HA
	?DataItemControlType@Schema@DirectUI@@2HA
	?DefaultAction@Button@DirectUI@@UAEJXZ
	?DefaultAction@CCBase@DirectUI@@UAEJXZ
	?DefaultAction@CCPushButton@DirectUI@@UAEJXZ
	?DefaultAction@Element@DirectUI@@UAEJXZ
	?DefaultButtonTrackingProp@DialogElement@DirectUI@@SGPBUPropertyInfo@2@XZ
	?DelayActivateTooltip@HWNDElement@DirectUI@@QAEXXZ
	?DeleteString@CCListBox@DirectUI@@QAEHH@Z
	?DesiredSizeProp@Element@DirectUI@@SGPBUPropertyInfo@2@XZ
	?Destroy@ClassInfoBase@DirectUI@@UAEXXZ
	?Destroy@DUIXmlParser@DirectUI@@QAEXXZ
	?Destroy@Element@DirectUI@@QAEJ_N@Z
	?Destroy@Expression@DirectUI@@QAEXXZ
	?Destroy@Layout@DirectUI@@QAEXXZ
	?Destroy@NativeHWNDHost@DirectUI@@QAEXXZ
	?Destroy@XHost@DirectUI@@QAEXXZ
	?DestroyAll@Element@DirectUI@@QAEJ_N@Z
	?DestroyCP@TaskPage@DirectUI@@EAEXXZ
	?DestroyCP@XResourceProvider@DirectUI@@UAEXXZ
	?DestroyListener@EventManager@DirectUI@@SGXPAVElement@2@@Z
	?DestroyWindow@NativeHWNDHost@DirectUI@@QAEXXZ
	?DestroyWindow@XHost@DirectUI@@QAEXXZ
	?Detach@Element@DirectUI@@QAEXPAVDeferCycle@2@@Z
	?Detach@HWNDHost@DirectUI@@QAEXXZ
	?Detach@Layout@DirectUI@@UAEXPAVElement@2@@Z
	?DetachParser@DUIFactory@DirectUI@@QAEPAVDUIXmlParser@2@XZ
	?DirectionProp@Element@DirectUI@@SGPBUPropertyInfo@2@XZ
	?DirtyProp@Edit@DirectUI@@SGPBUPropertyInfo@2@XZ
	?Disconnect@DuiAccessible@DirectUI@@UAEJXZ
	?Disconnect@HWNDElementAccessible@DirectUI@@UAEJXZ
	?Disconnect@HWNDHostAccessible@DirectUI@@UAEJXZ
	?DllsLoaded@CallstackTracker@DirectUI@@CGHXZ
	?DoInvoke@?$PatternProvider@VExpandCollapseProvider@DirectUI@@UIExpandCollapseProvider@@$00@DirectUI@@IAAJHZZ
	?DoInvoke@?$PatternProvider@VGridItemProvider@DirectUI@@UIGridItemProvider@@$01@DirectUI@@IAAJHZZ
	?DoInvoke@?$PatternProvider@VGridProvider@DirectUI@@UIGridProvider@@$02@DirectUI@@IAAJHZZ
	?DoInvoke@?$PatternProvider@VInvokeProvider@DirectUI@@UIInvokeProvider@@$0A@@DirectUI@@IAAJHZZ
	?DoInvoke@?$PatternProvider@VRangeValueProvider@DirectUI@@UIRangeValueProvider@@$03@DirectUI@@IAAJHZZ
	?DoInvoke@?$PatternProvider@VScrollItemProvider@DirectUI@@UIScrollItemProvider@@$05@DirectUI@@IAAJHZZ
	?DoInvoke@?$PatternProvider@VScrollProvider@DirectUI@@UIScrollProvider@@$04@DirectUI@@IAAJHZZ
	?DoInvoke@?$PatternProvider@VSelectionItemProvider@DirectUI@@UISelectionItemProvider@@$06@DirectUI@@IAAJHZZ
	?DoInvoke@?$PatternProvider@VSelectionProvider@DirectUI@@UISelectionProvider@@$07@DirectUI@@IAAJHZZ
	?DoInvoke@?$PatternProvider@VTableItemProvider@DirectUI@@UITableItemProvider@@$09@DirectUI@@IAAJHZZ
	?DoInvoke@?$PatternProvider@VTableProvider@DirectUI@@UITableProvider@@$08@DirectUI@@IAAJHZZ
	?DoInvoke@?$PatternProvider@VToggleProvider@DirectUI@@UIToggleProvider@@$0L@@DirectUI@@IAAJHZZ
	?DoInvoke@?$PatternProvider@VValueProvider@DirectUI@@UIValueProvider@@$0M@@DirectUI@@IAAJHZZ
	?DoInvoke@ElementProvider@DirectUI@@IAAJHZZ
	?DoInvoke@InvokeHelper@DirectUI@@QAEJHPAVElementProvider@2@P6GPAVProviderProxy@2@PAVElement@2@@ZPAD@Z
	?DoInvokeArgs@ElementProvider@DirectUI@@QAEJHP6GPAVProviderProxy@2@PAVElement@2@@ZPAD@Z
	?DoLayout@BorderLayout@DirectUI@@UAEXPAVElement@2@HH@Z
	?DoLayout@FillLayout@DirectUI@@UAEXPAVElement@2@HH@Z
	?DoLayout@FlowLayout@DirectUI@@UAEXPAVElement@2@HH@Z
	?DoLayout@GridLayout@DirectUI@@UAEXPAVElement@2@HH@Z
	?DoLayout@Layout@DirectUI@@UAEXPAVElement@2@HH@Z
	?DoLayout@NineGridLayout@DirectUI@@UAEXPAVElement@2@HH@Z
	?DoLayout@RowLayout@DirectUI@@UAEXPAVElement@2@HH@Z
	?DoLayout@TableLayout@DirectUI@@UAEXPAVElement@2@HH@Z
	?DoLayout@VerticalFlowLayout@DirectUI@@UAEXPAVElement@2@HH@Z
	?DoMethod@BrowserSelectionProxy@DirectUI@@UAEJHPAD@Z
	?DoMethod@ElementProxy@DirectUI@@UAEJHPAD@Z
	?DoMethod@ExpandCollapseProxy@DirectUI@@UAEJHPAD@Z
	?DoMethod@GridItemProxy@DirectUI@@UAEJHPAD@Z
	?DoMethod@GridProxy@DirectUI@@UAEJHPAD@Z
	?DoMethod@HWNDElementProxy@DirectUI@@UAEJHPAD@Z
	?DoMethod@InvokeProxy@DirectUI@@UAEJHPAD@Z
	?DoMethod@NavigatorSelectionItemProxy@DirectUI@@UAEJHPAD@Z
	?DoMethod@ProgressRangeValueProxy@DirectUI@@UAEJHPAD@Z
	?DoMethod@RangeValueProxy@DirectUI@@UAEJHPAD@Z
	?DoMethod@ScrollBarRangeValueProxy@DirectUI@@UAEJHPAD@Z
	?DoMethod@ScrollItemProxy@DirectUI@@UAEJHPAD@Z
	?DoMethod@ScrollProxy@DirectUI@@UAEJHPAD@Z
	?DoMethod@SelectionItemProxy@DirectUI@@UAEJHPAD@Z
	?DoMethod@SelectionProxy@DirectUI@@UAEJHPAD@Z
	?DoMethod@SelectorSelectionItemProxy@DirectUI@@UAEJHPAD@Z
	?DoMethod@SelectorSelectionProxy@DirectUI@@UAEJHPAD@Z
	?DoMethod@TableItemProxy@DirectUI@@UAEJHPAD@Z
	?DoMethod@TableProxy@DirectUI@@UAEJHPAD@Z
	?DoMethod@ToggleProxy@DirectUI@@UAEJHPAD@Z
	?DoMethod@ValueProxy@DirectUI@@UAEJHPAD@Z
	?DockPattern@Schema@DirectUI@@2HA
	?DocumentControlType@Schema@DirectUI@@2HA
	?DoubleBuffered@Element@DirectUI@@QAEX_N@Z
	?Drag@Thumb@DirectUI@@SG?AVUID@@XZ
	?DrawOutlinesProp@Movie@DirectUI@@SGPBUPropertyInfo@2@XZ
	?DumpDuiProperties@@YGXPAVElement@DirectUI@@@Z
	?DumpDuiTree@@YGXPAVElement@DirectUI@@H@Z
	?EditControlType@Schema@DirectUI@@2HA
	?ElementFromPoint@HWNDElement@DirectUI@@QAEPAVElement@2@PAUtagPOINT@@@Z
	?ElementFromPoint@HWNDElementProxy@DirectUI@@IAEJNNPAPAUIRawElementProviderFragment@@@Z
	?ElementProviderFromPoint@HWNDElementProvider@DirectUI@@UAGJNNPAPAUIRawElementProviderFragment@@@Z
	?EnableDesignMode@DUIXmlParser@DirectUI@@QAEXXZ
	?EnableUiaEvents@Element@DirectUI@@QAEX_N@Z
	?EnabledProp@Element@DirectUI@@SGPBUPropertyInfo@2@XZ
	?End@BaseScrollBar@DirectUI@@UAEXXZ
	?EndDefer@Element@DirectUI@@QAEXK@Z
	?EndDefer@EventManager@DirectUI@@SGJPAVElement@2@@Z
	?EnforceSizeProp@PushButton@DirectUI@@SGPBUPropertyInfo@2@XZ
	?EnsureVisible@Element@DirectUI@@QAE_NI@Z
	?EnsureVisible@Element@DirectUI@@QAE_NXZ
	?EnsureVisible@Element@DirectUI@@UAE_NHHHH@Z
	?EnsureVisible@Viewer@DirectUI@@UAE_NHHHH@Z
	?Enter@Edit@DirectUI@@SG?AVUID@@XZ
	?Entered@Browser@DirectUI@@SG?AVUID@@XZ
	?EnumCallstackFrames@CallstackTracker@DirectUI@@QAEHP6GXPBD0KK@Z@Z
	?EnumPropertyInfo@ClassInfoBase@DirectUI@@UAEPBUPropertyInfo@2@I@Z
	?EraseBkgnd@HWNDHost@DirectUI@@MAE_NPAUHDC__@@PAJ@Z
	?EstimateContentSize@CCPushButton@DirectUI@@UAE?AUtagSIZE@@HHPAVSurface@2@@Z
	?EventFromEventId@Schema@DirectUI@@SG?AW4Event@12@H@Z
	?EventListener@EventManager@DirectUI@@SGJPAVElement@2@PAUEvent@2@@Z
	?Expand@ExpandCollapseProvider@DirectUI@@UAGJXZ
	?ExpandCollapsePattern@Schema@DirectUI@@2HA
	?ExpandCollapse_ExpandCollapseState_Property@Schema@DirectUI@@2HA
	?ExpandProp@Macro@DirectUI@@SGPBUPropertyInfo@2@XZ
	?ExpandedProp@Expandable@DirectUI@@SGPBUPropertyInfo@2@XZ
	?ExtentProp@Element@DirectUI@@SGPBUPropertyInfo@2@XZ
	?FWantAnyEvent@EventManager@DirectUI@@SG_NPAVElement@2@@Z
	?FillSymbolInfo@CallstackTracker@DirectUI@@AAEXPAUSTACK_SYMBOL_INFO@12@_K@Z
	?Find@ElementProviderManager@DirectUI@@SGPAVElementProvider@2@PAVElement@2@@Z
	?FindAccessibleRole@AccessibleButton@DirectUI@@CGPBUACCESSIBLEROLE@12@H@Z
	?FindDescendent@Element@DirectUI@@QAEPAV12@G@Z
	?FindDescendentWorker@Element@DirectUI@@AAEPAV12@G@Z
	?FindElementWithShortcutAndDoDefaultAction@XProvider@DirectUI@@UAGHGH@Z
	?FindInvokeHelper@InvokeManager@DirectUI@@CGPAVInvokeHelper@2@PAI@Z
	?FindProviderCallback@ElementProviderManager@DirectUI@@CG_NPAVElementProvider@2@PAX@Z
	?FindRefPoint@RefPointElement@DirectUI@@SGPAVElement@2@PAV32@PAUtagPOINT@@@Z
	?FindShortcut@HWNDElement@DirectUI@@SG_NGPAVElement@2@PAPAV32@PAH2H@Z
	?FindShortcutRecursive@HWNDElement@DirectUI@@KG_NGPAVElement@2@PAPAV32@PAH2H@Z
	?FireAnimationChangeEvent@BaseScrollViewer@DirectUI@@IAEX_N@Z
	?FireEvent@Element@DirectUI@@QAEXPAUEvent@2@_N1@Z
	?FireHostEvent@PushButton@DirectUI@@AAEXPAVElement@2@_N@Z
	?FireNavigate@Browser@DirectUI@@AAEHG@Z
	?FireNavigationEvent@Navigator@DirectUI@@AAEXXZ
	?FireStructureChangedEvent@EventManager@DirectUI@@SGJPAVElement@2@W4StructureChangeType@@@Z
	?FlushWorkingSet@HWNDElement@DirectUI@@QAEXXZ
	?FontFaceProp@Element@DirectUI@@SGPBUPropertyInfo@2@XZ
	?FontProp@Element@DirectUI@@SGPBUPropertyInfo@2@XZ
	?FontQualityProp@Element@DirectUI@@SGPBUPropertyInfo@2@XZ
	?FontSizeProp@Element@DirectUI@@SGPBUPropertyInfo@2@XZ
	?FontStyleProp@Element@DirectUI@@SGPBUPropertyInfo@2@XZ
	?FontWeightProp@Element@DirectUI@@SGPBUPropertyInfo@2@XZ
	?ForceThemeChange@XBaby@DirectUI@@QAEXIJ@Z
	?ForceThemeChange@XProvider@DirectUI@@UAGJIJ@Z
	?ForegroundProp@Element@DirectUI@@SGPBUPropertyInfo@2@XZ
	?Forward@Movie@DirectUI@@QAEXXZ
	?FrameDurationProp@AnimationStrip@DirectUI@@SGPBUPropertyInfo@2@XZ
	?FrameIndexProp@AnimationStrip@DirectUI@@SGPBUPropertyInfo@2@XZ
	?FrameWidthProp@AnimationStrip@DirectUI@@SGPBUPropertyInfo@2@XZ
	?FrameworkId@Schema@DirectUI@@2HA
	?FreeComCtl32@TaskPage@DirectUI@@AAEXXZ
	?FreeProvider@XElement@DirectUI@@QAEXXZ
	?GetAbsorbsShortcut@Element@DirectUI@@QAE_NXZ
	?GetAccDefAction@Element@DirectUI@@QAEPBGPAPAVValue@2@@Z
	?GetAccDesc@Element@DirectUI@@QAEPBGPAPAVValue@2@@Z
	?GetAccHelp@Element@DirectUI@@QAEPBGPAPAVValue@2@@Z
	?GetAccItemStatus@Element@DirectUI@@QAEPBGPAPAVValue@2@@Z
	?GetAccItemType@Element@DirectUI@@QAEPBGPAPAVValue@2@@Z
	?GetAccName@DuiAccessible@DirectUI@@IAEJUtagVARIANT@@HPAPAG@Z
	?GetAccName@Element@DirectUI@@QAEPBGPAPAVValue@2@@Z
	?GetAccNameAsDisplayed@Element@DirectUI@@QAEPBGPAPAVValue@2@@Z
	?GetAccNameFromContent@DuiAccessible@DirectUI@@IAEJPAPAG@Z
	?GetAccRole@Element@DirectUI@@QAEHXZ
	?GetAccState@Element@DirectUI@@QAEHXZ
	?GetAccValue@Element@DirectUI@@QAEPBGPAPAVValue@2@@Z
	?GetAccessible@Element@DirectUI@@QAE_NXZ
	?GetAccessibleImpl@Element@DirectUI@@UAEJPAPAUIAccessible@@@Z
	?GetAccessibleImpl@HWNDElement@DirectUI@@UAEJPAPAUIAccessible@@@Z
	?GetAccessibleImpl@HWNDHost@DirectUI@@AAEJPAPAUIAccessible@@_N@Z
	?GetAccessibleImpl@HWNDHost@DirectUI@@UAEJPAPAUIAccessible@@@Z
	?GetAccessibleParent@DuiAccessible@DirectUI@@SGPAVElement@2@PAV32@@Z
	?GetActive@Element@DirectUI@@QAEHXZ
	?GetActualReferencePoint@RefPointElement@DirectUI@@QAEPBUtagPOINT@@PAPAVValue@2@@Z
	?GetAdjacent@BorderLayout@DirectUI@@UAEPAVElement@2@PAV32@0HPBUNavReference@2@K@Z
	?GetAdjacent@Element@DirectUI@@UAEPAV12@PAV12@HPBUNavReference@2@K@Z
	?GetAdjacent@FillLayout@DirectUI@@UAEPAVElement@2@PAV32@0HPBUNavReference@2@K@Z
	?GetAdjacent@FlowLayout@DirectUI@@UAEPAVElement@2@PAV32@0HPBUNavReference@2@K@Z
	?GetAdjacent@GridLayout@DirectUI@@UAEPAVElement@2@PAV32@0HPBUNavReference@2@K@Z
	?GetAdjacent@Layout@DirectUI@@UAEPAVElement@2@PAV32@0HPBUNavReference@2@K@Z
	?GetAdjacent@NineGridLayout@DirectUI@@UAEPAVElement@2@PAV32@0HPBUNavReference@2@K@Z
	?GetAdjacent@RowLayout@DirectUI@@UAEPAVElement@2@PAV32@0HPBUNavReference@2@K@Z
	?GetAdjacent@Selector@DirectUI@@UAEPAVElement@2@PAV32@HPBUNavReference@2@K@Z
	?GetAdjacent@ShellBorderLayout@DirectUI@@UAEPAVElement@2@PAV32@0HPBUNavReference@2@K@Z
	?GetAdjacent@TableLayout@DirectUI@@UAEPAVElement@2@PAV32@0HPBUNavReference@2@K@Z
	?GetAdjacent@VerticalFlowLayout@DirectUI@@UAEPAVElement@2@PAV32@0HPBUNavReference@2@K@Z
	?GetAdjacent@XBaby@DirectUI@@UAEPAVElement@2@PAV32@HPBUNavReference@2@K@Z
	?GetAlpha@Element@DirectUI@@QAEHXZ
	?GetAnimation@Element@DirectUI@@QAEHXZ
	?GetAtom@Value@DirectUI@@QAEGXZ
	?GetAtomZero@Value@DirectUI@@SGPAV12@XZ
	?GetAutoGrouping@CCRadioButton@DirectUI@@QAE_NXZ
	?GetAutoStart@Movie@DirectUI@@QAE_NXZ
	?GetAutoStop@Movie@DirectUI@@QAE_NXZ
	?GetAutomationId@ElementProxy@DirectUI@@IAEJPAUtagVARIANT@@@Z
	?GetBackgroundColor@Element@DirectUI@@QAEPBUFill@2@PAPAVValue@2@@Z
	?GetBackgroundOwner@HWNDHost@DirectUI@@IAEPAVElement@2@XZ
	?GetBackgroundOwnerID@HWNDHost@DirectUI@@QAEGXZ
	?GetBackgroundStdColor@Element@DirectUI@@QAEHXZ
	?GetBool@EventManager@DirectUI@@CGJPAUtagVARIANT@@PAVValue@2@@Z
	?GetBool@Value@DirectUI@@QAE_NXZ
	?GetBoolFalse@Value@DirectUI@@SGPAV12@XZ
	?GetBoolTrue@Value@DirectUI@@SGPAV12@XZ
	?GetBorderColor@Element@DirectUI@@QAEPBUFill@2@PAPAVValue@2@@Z
	?GetBorderStdColor@Element@DirectUI@@QAEHXZ
	?GetBorderStyle@Element@DirectUI@@QAEHXZ
	?GetBorderThickness@Element@DirectUI@@QAEPBUtagRECT@@PAPAVValue@2@@Z
	?GetBoundingRect@ElementProxy@DirectUI@@IAEJPAUUiaRect@@@Z
	?GetBrowser@Navigator@DirectUI@@QAEPAVBrowser@2@XZ
	?GetButtonClassAcceptsEnterKey@DialogElement@DirectUI@@QAE_NXZ
	?GetButtonColor@CCPushButton@DirectUI@@UAE_NPAUHDC__@@PAPAUHBRUSH__@@@Z
	?GetByClassIndex@ClassInfoBase@DirectUI@@UAEPBUPropertyInfo@2@I@Z
	?GetCaptured@Button@DirectUI@@QAE_NXZ
	?GetCellInfo@TableLayout@DirectUI@@QAEPAUCellInfo@2@H@Z
	?GetChildFromLayoutIndex@Layout@DirectUI@@QAEPAVElement@2@PAV32@HPAV?$DynamicArray@PAVElement@DirectUI@@$0A@@2@@Z
	?GetChildren@ClassInfoBase@DirectUI@@UBEHXZ
	?GetChildren@Element@DirectUI@@QAEPAV?$DynamicArray@PAVElement@DirectUI@@$0A@@2@PAPAVValue@2@@Z
	?GetClass@Element@DirectUI@@QAEPBGPAPAVValue@2@@Z
	?GetClassInfoPtr@AccessibleButton@DirectUI@@SGPAUIClassInfo@2@XZ
	?GetClassInfoPtr@AnimationStrip@DirectUI@@SGPAUIClassInfo@2@XZ
	?GetClassInfoPtr@AutoButton@DirectUI@@SGPAUIClassInfo@2@XZ
	?GetClassInfoPtr@BaseScrollViewer@DirectUI@@SGPAUIClassInfo@2@XZ
	?GetClassInfoPtr@Bind@DirectUI@@SGPAUIClassInfo@2@XZ
	?GetClassInfoPtr@Browser@DirectUI@@SGPAUIClassInfo@2@XZ
	?GetClassInfoPtr@Button@DirectUI@@SGPAUIClassInfo@2@XZ
	?GetClassInfoPtr@CCAVI@DirectUI@@SGPAUIClassInfo@2@XZ
	?GetClassInfoPtr@CCBase@DirectUI@@SGPAUIClassInfo@2@XZ
	?GetClassInfoPtr@CCBaseCheckRadioButton@DirectUI@@SGPAUIClassInfo@2@XZ
	?GetClassInfoPtr@CCBaseScrollBar@DirectUI@@SGPAUIClassInfo@2@XZ
	?GetClassInfoPtr@CCCheckBox@DirectUI@@SGPAUIClassInfo@2@XZ
	?GetClassInfoPtr@CCCommandLink@DirectUI@@SGPAUIClassInfo@2@XZ
	?GetClassInfoPtr@CCHScrollBar@DirectUI@@SGPAUIClassInfo@2@XZ
	?GetClassInfoPtr@CCListBox@DirectUI@@SGPAUIClassInfo@2@XZ
	?GetClassInfoPtr@CCListView@DirectUI@@SGPAUIClassInfo@2@XZ
	?GetClassInfoPtr@CCProgressBar@DirectUI@@SGPAUIClassInfo@2@XZ
	?GetClassInfoPtr@CCPushButton@DirectUI@@SGPAUIClassInfo@2@XZ
	?GetClassInfoPtr@CCRadioButton@DirectUI@@SGPAUIClassInfo@2@XZ
	?GetClassInfoPtr@CCSysLink@DirectUI@@SGPAUIClassInfo@2@XZ
	?GetClassInfoPtr@CCTrackBar@DirectUI@@SGPAUIClassInfo@2@XZ
	?GetClassInfoPtr@CCTreeView@DirectUI@@SGPAUIClassInfo@2@XZ
	?GetClassInfoPtr@CCVScrollBar@DirectUI@@SGPAUIClassInfo@2@XZ
	?GetClassInfoPtr@CheckBoxGlyph@DirectUI@@SGPAUIClassInfo@2@XZ
	?GetClassInfoPtr@Clipper@DirectUI@@SGPAUIClassInfo@2@XZ
	?GetClassInfoPtr@Combobox@DirectUI@@SGPAUIClassInfo@2@XZ
	?GetClassInfoPtr@DialogElement@DirectUI@@SGPAUIClassInfo@2@XZ
	?GetClassInfoPtr@Edit@DirectUI@@SGPAUIClassInfo@2@XZ
	?GetClassInfoPtr@Element@DirectUI@@SGPAUIClassInfo@2@XZ
	?GetClassInfoPtr@ElementWithHWND@DirectUI@@SGPAUIClassInfo@2@XZ
	?GetClassInfoPtr@Expandable@DirectUI@@SGPAUIClassInfo@2@XZ
	?GetClassInfoPtr@Expando@DirectUI@@SGPAUIClassInfo@2@XZ
	?GetClassInfoPtr@ExpandoButtonGlyph@DirectUI@@SGPAUIClassInfo@2@XZ
	?GetClassInfoPtr@HWNDElement@DirectUI@@SGPAUIClassInfo@2@XZ
	?GetClassInfoPtr@HWNDHost@DirectUI@@SGPAUIClassInfo@2@XZ
	?GetClassInfoPtr@Macro@DirectUI@@SGPAUIClassInfo@2@XZ
	?GetClassInfoPtr@Movie@DirectUI@@SGPAUIClassInfo@2@XZ
	?GetClassInfoPtr@Navigator@DirectUI@@SGPAUIClassInfo@2@XZ
	?GetClassInfoPtr@PText@DirectUI@@SGPAUIClassInfo@2@XZ
	?GetClassInfoPtr@Page@DirectUI@@SGPAUIClassInfo@2@XZ
	?GetClassInfoPtr@Pages@DirectUI@@SGPAUIClassInfo@2@XZ
	?GetClassInfoPtr@Progress@DirectUI@@SGPAUIClassInfo@2@XZ
	?GetClassInfoPtr@PushButton@DirectUI@@SGPAUIClassInfo@2@XZ
	?GetClassInfoPtr@RadioButtonGlyph@DirectUI@@SGPAUIClassInfo@2@XZ
	?GetClassInfoPtr@RefPointElement@DirectUI@@SGPAUIClassInfo@2@XZ
	?GetClassInfoPtr@RepeatButton@DirectUI@@SGPAUIClassInfo@2@XZ
	?GetClassInfoPtr@Repeater@DirectUI@@SGPAUIClassInfo@2@XZ
	?GetClassInfoPtr@ScrollBar@DirectUI@@SGPAUIClassInfo@2@XZ
	?GetClassInfoPtr@ScrollViewer@DirectUI@@SGPAUIClassInfo@2@XZ
	?GetClassInfoPtr@Selector@DirectUI@@SGPAUIClassInfo@2@XZ
	?GetClassInfoPtr@SelectorNoDefault@DirectUI@@SGPAUIClassInfo@2@XZ
	?GetClassInfoPtr@StyledScrollViewer@DirectUI@@SGPAUIClassInfo@2@XZ
	?GetClassInfoPtr@TextGraphic@DirectUI@@SGPAUIClassInfo@2@XZ
	?GetClassInfoPtr@Thumb@DirectUI@@SGPAUIClassInfo@2@XZ
	?GetClassInfoPtr@UnknownElement@DirectUI@@SGPAUIClassInfo@2@XZ
	?GetClassInfoPtr@Viewer@DirectUI@@SGPAUIClassInfo@2@XZ
	?GetClassInfoPtr@XBaby@DirectUI@@SGPAUIClassInfo@2@XZ
	?GetClassInfoPtr@XElement@DirectUI@@SGPAUIClassInfo@2@XZ
	?GetClassInfoW@AccessibleButton@DirectUI@@UAEPAUIClassInfo@2@XZ
	?GetClassInfoW@AnimationStrip@DirectUI@@UAEPAUIClassInfo@2@XZ
	?GetClassInfoW@AutoButton@DirectUI@@UAEPAUIClassInfo@2@XZ
	?GetClassInfoW@BaseScrollViewer@DirectUI@@UAEPAUIClassInfo@2@XZ
	?GetClassInfoW@Bind@DirectUI@@UAEPAUIClassInfo@2@XZ
	?GetClassInfoW@Browser@DirectUI@@UAEPAUIClassInfo@2@XZ
	?GetClassInfoW@Button@DirectUI@@UAEPAUIClassInfo@2@XZ
	?GetClassInfoW@CCAVI@DirectUI@@UAEPAUIClassInfo@2@XZ
	?GetClassInfoW@CCBase@DirectUI@@UAEPAUIClassInfo@2@XZ
	?GetClassInfoW@CCBaseCheckRadioButton@DirectUI@@UAEPAUIClassInfo@2@XZ
	?GetClassInfoW@CCBaseScrollBar@DirectUI@@UAEPAUIClassInfo@2@XZ
	?GetClassInfoW@CCCheckBox@DirectUI@@UAEPAUIClassInfo@2@XZ
	?GetClassInfoW@CCCommandLink@DirectUI@@UAEPAUIClassInfo@2@XZ
	?GetClassInfoW@CCHScrollBar@DirectUI@@UAEPAUIClassInfo@2@XZ
	?GetClassInfoW@CCListBox@DirectUI@@UAEPAUIClassInfo@2@XZ
	?GetClassInfoW@CCListView@DirectUI@@UAEPAUIClassInfo@2@XZ
	?GetClassInfoW@CCProgressBar@DirectUI@@UAEPAUIClassInfo@2@XZ
	?GetClassInfoW@CCPushButton@DirectUI@@UAEPAUIClassInfo@2@XZ
	?GetClassInfoW@CCRadioButton@DirectUI@@UAEPAUIClassInfo@2@XZ
	?GetClassInfoW@CCSysLink@DirectUI@@UAEPAUIClassInfo@2@XZ
	?GetClassInfoW@CCTrackBar@DirectUI@@UAEPAUIClassInfo@2@XZ
	?GetClassInfoW@CCTreeView@DirectUI@@UAEPAUIClassInfo@2@XZ
	?GetClassInfoW@CCVScrollBar@DirectUI@@UAEPAUIClassInfo@2@XZ
	?GetClassInfoW@CheckBoxGlyph@DirectUI@@UAEPAUIClassInfo@2@XZ
	?GetClassInfoW@Clipper@DirectUI@@UAEPAUIClassInfo@2@XZ
	?GetClassInfoW@Combobox@DirectUI@@UAEPAUIClassInfo@2@XZ
	?GetClassInfoW@DialogElement@DirectUI@@UAEPAUIClassInfo@2@XZ
	?GetClassInfoW@Edit@DirectUI@@UAEPAUIClassInfo@2@XZ
	?GetClassInfoW@Element@DirectUI@@UAEPAUIClassInfo@2@XZ
	?GetClassInfoW@ElementWithHWND@DirectUI@@UAEPAUIClassInfo@2@XZ
	?GetClassInfoW@Expandable@DirectUI@@UAEPAUIClassInfo@2@XZ
	?GetClassInfoW@Expando@DirectUI@@UAEPAUIClassInfo@2@XZ
	?GetClassInfoW@ExpandoButtonGlyph@DirectUI@@UAEPAUIClassInfo@2@XZ
	?GetClassInfoW@HWNDElement@DirectUI@@UAEPAUIClassInfo@2@XZ
	?GetClassInfoW@HWNDHost@DirectUI@@UAEPAUIClassInfo@2@XZ
	?GetClassInfoW@Macro@DirectUI@@UAEPAUIClassInfo@2@XZ
	?GetClassInfoW@Movie@DirectUI@@UAEPAUIClassInfo@2@XZ
	?GetClassInfoW@Navigator@DirectUI@@UAEPAUIClassInfo@2@XZ
	?GetClassInfoW@PText@DirectUI@@UAEPAUIClassInfo@2@XZ
	?GetClassInfoW@Page@DirectUI@@UAEPAUIClassInfo@2@XZ
	?GetClassInfoW@Pages@DirectUI@@UAEPAUIClassInfo@2@XZ
	?GetClassInfoW@Progress@DirectUI@@UAEPAUIClassInfo@2@XZ
	?GetClassInfoW@PushButton@DirectUI@@UAEPAUIClassInfo@2@XZ
	?GetClassInfoW@RadioButtonGlyph@DirectUI@@UAEPAUIClassInfo@2@XZ
	?GetClassInfoW@RefPointElement@DirectUI@@UAEPAUIClassInfo@2@XZ
	?GetClassInfoW@RepeatButton@DirectUI@@UAEPAUIClassInfo@2@XZ
	?GetClassInfoW@Repeater@DirectUI@@UAEPAUIClassInfo@2@XZ
	?GetClassInfoW@ScrollBar@DirectUI@@UAEPAUIClassInfo@2@XZ
	?GetClassInfoW@ScrollViewer@DirectUI@@UAEPAUIClassInfo@2@XZ
	?GetClassInfoW@Selector@DirectUI@@UAEPAUIClassInfo@2@XZ
	?GetClassInfoW@SelectorNoDefault@DirectUI@@UAEPAUIClassInfo@2@XZ
	?GetClassInfoW@StyledScrollViewer@DirectUI@@UAEPAUIClassInfo@2@XZ
	?GetClassInfoW@TextGraphic@DirectUI@@UAEPAUIClassInfo@2@XZ
	?GetClassInfoW@Thumb@DirectUI@@UAEPAUIClassInfo@2@XZ
	?GetClassInfoW@UnknownElement@DirectUI@@UAEPAUIClassInfo@2@XZ
	?GetClassInfoW@Viewer@DirectUI@@UAEPAUIClassInfo@2@XZ
	?GetClassInfoW@XBaby@DirectUI@@UAEPAUIClassInfo@2@XZ
	?GetClassInfoW@XElement@DirectUI@@UAEPAUIClassInfo@2@XZ
	?GetClickablePoint@Element@DirectUI@@QAE_NPAUtagPOINT@@@Z
	?GetClientAccessibleImpl@HWNDHost@DirectUI@@QAEJPAPAUIAccessible@@@Z
	?GetColorTrans@Value@DirectUI@@SGPAV12@XZ
	?GetColorize@Element@DirectUI@@QAEHXZ
	?GetColumn@GridItemProxy@DirectUI@@AAEJPAH@Z
	?GetColumnCount@GridProxy@DirectUI@@AAEJPAH@Z
	?GetColumnHeaderItems@TableItemProvider@DirectUI@@UAGJPAPAUtagSAFEARRAY@@@Z
	?GetColumnHeaders@TableProvider@DirectUI@@UAGJPAPAUtagSAFEARRAY@@@Z
	?GetCommonDrawTextFlags@Element@DirectUI@@AAEIH@Z
	?GetCompositingQuality@Movie@DirectUI@@QAEHXZ
	?GetConnect@Bind@DirectUI@@QAEPBGPAPAVValue@2@@Z
	?GetContainingGrid@GridItemProxy@DirectUI@@AAEJPAPAUIRawElementProviderSimple@@@Z
	?GetContent@ElementProxy@DirectUI@@IAEJPAUtagVARIANT@@PAUIAccessible@@@Z
	?GetContent@Viewer@DirectUI@@AAEPAVElement@2@XZ
	?GetContentAlign@Element@DirectUI@@QAEHXZ
	?GetContentDesiredSize@XBaby@DirectUI@@QAE?AUtagSIZE@@HH@Z
	?GetContentSize@CCBase@DirectUI@@UAE?AUtagSIZE@@HHPAVSurface@2@@Z
	?GetContentSize@CCBaseCheckRadioButton@DirectUI@@UAE?AUtagSIZE@@HHPAVSurface@2@@Z
	?GetContentSize@CCCommandLink@DirectUI@@UAE?AUtagSIZE@@HHPAVSurface@2@@Z
	?GetContentSize@CCHScrollBar@DirectUI@@UAE?AUtagSIZE@@HHPAVSurface@2@@Z
	?GetContentSize@CCListBox@DirectUI@@UAE?AUtagSIZE@@HHPAVSurface@2@@Z
	?GetContentSize@CCListView@DirectUI@@UAE?AUtagSIZE@@HHPAVSurface@2@@Z
	?GetContentSize@CCPushButton@DirectUI@@UAE?AUtagSIZE@@HHPAVSurface@2@@Z
	?GetContentSize@CCSysLink@DirectUI@@UAE?AUtagSIZE@@HHPAVSurface@2@@Z
	?GetContentSize@CCTreeView@DirectUI@@UAE?AUtagSIZE@@HHPAVSurface@2@@Z
	?GetContentSize@CCVScrollBar@DirectUI@@UAE?AUtagSIZE@@HHPAVSurface@2@@Z
	?GetContentSize@Combobox@DirectUI@@UAE?AUtagSIZE@@HHPAVSurface@2@@Z
	?GetContentSize@Edit@DirectUI@@UAE?AUtagSIZE@@HHPAVSurface@2@@Z
	?GetContentSize@Element@DirectUI@@UAE?AUtagSIZE@@HHPAVSurface@2@@Z
	?GetContentSize@Progress@DirectUI@@UAE?AUtagSIZE@@HHPAVSurface@2@@Z
	?GetContentSize@PushButton@DirectUI@@UAE?AUtagSIZE@@HHPAVSurface@2@@Z
	?GetContentString@Element@DirectUI@@QAEPBGPAPAVValue@2@@Z
	?GetContentStringAsDisplayed@Edit@DirectUI@@UAEPBGPAPAVValue@2@@Z
	?GetContentStringAsDisplayed@Element@DirectUI@@UAEPBGPAPAVValue@2@@Z
	?GetContentStringAsDisplayed@TextGraphic@DirectUI@@UAEPBGPAPAVValue@2@@Z
	?GetControlType@ElementProxy@DirectUI@@IAEXPAUtagVARIANT@@PAUIAccessible@@@Z
	?GetCount@CCListBox@DirectUI@@QAEHXZ
	?GetCount@Pages@DirectUI@@QAEIXZ
	?GetCurrentCols@GridLayout@DirectUI@@IAEIH@Z
	?GetCurrentCols@GridLayout@DirectUI@@IAEIPAVElement@2@@Z
	?GetCurrentPage@Browser@DirectUI@@QAEPAVElement@2@XZ
	?GetCurrentPageID@Browser@DirectUI@@QAEGXZ
	?GetCurrentRows@GridLayout@DirectUI@@IAEIH@Z
	?GetCurrentRows@GridLayout@DirectUI@@IAEIPAVElement@2@@Z
	?GetCursor@Value@DirectUI@@QAEPAUCursor@2@XZ
	?GetCursorNull@Value@DirectUI@@SGPAV12@XZ
	?GetDPI@Element@DirectUI@@QAEHXZ
	?GetDataEntry@Macro@DirectUI@@QAEPAUIDataEntry@2@XZ
	?GetDefaultButton@DialogElement@DirectUI@@UAEPAVElement@2@XZ
	?GetDefaultButtonTracking@DialogElement@DirectUI@@QAE_NXZ
	?GetDeferObject@Element@DirectUI@@QAEPAVDeferCycle@2@XZ
	?GetDesiredSize@Element@DirectUI@@QAEPBUtagSIZE@@XZ
	?GetDesiredSize@XProvider@DirectUI@@UAGJHHPAUtagSIZE@@@Z
	?GetDirection@Element@DirectUI@@QAEHXZ
	?GetDirty@Edit@DirectUI@@QAE_NXZ
	?GetDispatchFromElement@DuiAccessible@DirectUI@@IAEJPAVElement@2@PAPAUIDispatch@@@Z
	?GetDisplayNode@Element@DirectUI@@QAEPAUHGADGET__@@XZ
	?GetDrawOutlines@Movie@DirectUI@@QAE_NXZ
	?GetElListNull@Value@DirectUI@@SGPAV12@XZ
	?GetElement@CCBaseScrollBar@DirectUI@@UAEPAVElement@2@XZ
	?GetElement@ElementProvider@DirectUI@@UAEPDVElement@2@XZ
	?GetElement@NativeHWNDHost@DirectUI@@QAEPAVElement@2@XZ
	?GetElement@ScrollBar@DirectUI@@UAEPAVElement@2@XZ
	?GetElement@TaskPage@DirectUI@@IAEPAVElement@2@XZ
	?GetElement@Value@DirectUI@@QAEPAVElement@2@XZ
	?GetElement@XHost@DirectUI@@QAEPAVElement@2@XZ
	?GetElementKey@ElementProvider@DirectUI@@QAEPBVElement@2@XZ
	?GetElementList@Value@DirectUI@@QAEPAV?$DynamicArray@PAVElement@DirectUI@@$0A@@2@XZ
	?GetElementNull@Value@DirectUI@@SGPAV12@XZ
	?GetElementProviderImpl@Element@DirectUI@@UAEJPAVInvokeHelper@2@PAPAVElementProvider@2@@Z
	?GetEmbeddedFragmentRoots@ElementProvider@DirectUI@@UAGJPAPAUtagSAFEARRAY@@@Z
	?GetEnabled@Element@DirectUI@@QAE_NXZ
	?GetEncodedContentString@Element@DirectUI@@QAEJPAGI@Z
	?GetEnforceSize@PushButton@DirectUI@@QAE_NXZ
	?GetExpand@Macro@DirectUI@@QAEPBGPAPAVValue@2@@Z
	?GetExpandCollapseState@EventManager@DirectUI@@CGXPAUtagVARIANT@@@Z
	?GetExpanded@Expandable@DirectUI@@QAE_NXZ
	?GetExprNull@Value@DirectUI@@SGPAV12@XZ
	?GetExpression@Value@DirectUI@@QAEPAVExpression@2@XZ
	?GetExtent@Element@DirectUI@@QAEPBUtagSIZE@@PAPAVValue@2@@Z
	?GetFactoryLock@Element@DirectUI@@SGPAU_RTL_CRITICAL_SECTION@@XZ
	?GetFill@Value@DirectUI@@QAEPBUFill@2@XZ
	?GetFocus@HWNDElementProvider@DirectUI@@UAGJPAPAUIRawElementProviderFragment@@@Z
	?GetFocus@HWNDElementProxy@DirectUI@@IAEJPAPAUIRawElementProviderFragment@@@Z
	?GetFocusableElement@XBaby@DirectUI@@UAEPAVElement@2@XZ
	?GetFocusedHWNDElement@HWNDElement@DirectUI@@SGPAV12@XZ
	?GetFont@Element@DirectUI@@QAEPBGPAPAVValue@2@@Z
	?GetFont@HWNDHost@DirectUI@@IAEPAUHFONT__@@XZ
	?GetFontFace@Element@DirectUI@@QAEPBGPAPAVValue@2@@Z
	?GetFontQuality@Element@DirectUI@@QAEHXZ
	?GetFontSize@Element@DirectUI@@QAEHXZ
	?GetFontStyle@Element@DirectUI@@QAEHXZ
	?GetFontWeight@Element@DirectUI@@QAEHXZ
	?GetForegroundColor@Element@DirectUI@@QAEPBUFill@2@PAPAVValue@2@@Z
	?GetForegroundStdColor@Element@DirectUI@@QAEHXZ
	?GetFragmentRoot@ElementProxy@DirectUI@@IAEJPAPAUIRawElementProviderFragmentRoot@@@Z
	?GetFrameDuration@AnimationStrip@DirectUI@@QAEHXZ
	?GetFrameIndex@AnimationStrip@DirectUI@@QAEHXZ
	?GetFrameWidth@AnimationStrip@DirectUI@@QAEHXZ
	?GetGetSheetCallback@DUIXmlParser@DirectUI@@QAEP6GPAVValue@2@PBGPAX@ZXZ
	?GetGlobalIndex@ClassInfoBase@DirectUI@@UBEIXZ
	?GetGraphic@Value@DirectUI@@QAEPAUGraphic@2@XZ
	?GetHDC@DCSurface@DirectUI@@QAEPAUHDC__@@XZ
	?GetHInstance@DUIXmlParser@DirectUI@@QAEPAUHINSTANCE__@@XZ
	?GetHScroll@ScrollViewer@DirectUI@@MAEPAVBaseScrollBar@2@XZ
	?GetHScroll@StyledScrollViewer@DirectUI@@MAEPAVBaseScrollBar@2@XZ
	?GetHWND@HWNDElement@DirectUI@@UAEPAUHWND__@@XZ
	?GetHWND@HWNDHost@DirectUI@@UAEPAUHWND__@@XZ
	?GetHWND@NativeHWNDHost@DirectUI@@QAEPAUHWND__@@XZ
	?GetHWND@XHost@DirectUI@@QAEPAUHWND__@@XZ
	?GetHWNDParent@HWNDHost@DirectUI@@QAEPAUHWND__@@XZ
	?GetHandle@ResourceModuleHandles@DirectUI@@QAEJPBGPAPAUHINSTANCE__@@@Z
	?GetHandleEnterKey@DialogElement@DirectUI@@QAE_NXZ
	?GetHasShield@CCPushButton@DirectUI@@QAE_NXZ
	?GetHeight@Element@DirectUI@@QAEHXZ
	?GetHighDPI@Element@DirectUI@@QAE_NXZ
	?GetHostedElementID@XBaby@DirectUI@@QAEJPAG@Z
	?GetHostedElementID@XProvider@DirectUI@@UAGJPAG@Z
	?GetHwnd@ElementProxy@DirectUI@@IAEJPAPAUHWND__@@@Z
	?GetID@Element@DirectUI@@QAEGXZ
	?GetIDsOfNames@DuiAccessible@DirectUI@@UAGJABU_GUID@@PAPAGIKPAJ@Z
	?GetIdentityString@DuiAccessible@DirectUI@@UAGJKPAPAEPAK@Z
	?GetIdentityString@HWNDHostAccessible@DirectUI@@UAGJKPAPAEPAK@Z
	?GetImage@Value@DirectUI@@QAEPAX_N@Z
	?GetImmediateChild@Element@DirectUI@@QAEPAV12@PAV12@@Z
	?GetIndex@Element@DirectUI@@QAEHXZ
	?GetInnerHWND@XElement@DirectUI@@QAEPAUHWND__@@XZ
	?GetInt@EventManager@DirectUI@@CGJPAUtagVARIANT@@PAVValue@2@@Z
	?GetInt@Value@DirectUI@@QAEHXZ
	?GetIntZero@Value@DirectUI@@SGPAV12@XZ
	?GetInterpolationMode@Movie@DirectUI@@QAEHXZ
	?GetInvokeHelper@InvokeManager@DirectUI@@SGJPAPAVInvokeHelper@2@@Z
	?GetIsReadOnly@ValueProxy@DirectUI@@AAEJPAH@Z
	?GetIsSelected@NavigatorSelectionItemProxy@DirectUI@@AAEJPAVBrowser@2@PAH@Z
	?GetIsSelectionRequired@BrowserSelectionProxy@DirectUI@@AAEJPAH@Z
	?GetIsSelectionRequired@SelectorSelectionProxy@DirectUI@@AAEJPAH@Z
	?GetItem@GridProvider@DirectUI@@UAGJHHPAPAUIRawElementProviderSimple@@@Z
	?GetItem@GridProxy@DirectUI@@AAEJIIPAPAUIRawElementProviderSimple@@@Z
	?GetItemState@CCTreeView@DirectUI@@QAEIQAU_TREEITEM@@@Z
	?GetKeyFocused@Element@DirectUI@@UAE_NXZ
	?GetKeyFocused@HWNDHost@DirectUI@@UAE_NXZ
	?GetKeyFocusedElement@HWNDElement@DirectUI@@SGPAVElement@2@XZ
	?GetKeyWithin@Element@DirectUI@@QAE_NXZ
	?GetKeyWithinChild@Element@DirectUI@@QAEPAV12@XZ
	?GetLabel@ElementProxy@DirectUI@@IAEJPAUtagVARIANT@@@Z
	?GetLayout@Element@DirectUI@@QAEPAVLayout@2@PAPAVValue@2@@Z
	?GetLayout@Value@DirectUI@@QAEPAVLayout@2@XZ
	?GetLayoutChildCount@Layout@DirectUI@@QAEIPAVElement@2@@Z
	?GetLayoutIndexFromChild@Layout@DirectUI@@QAEHPAVElement@2@0@Z
	?GetLayoutNull@Value@DirectUI@@SGPAV12@XZ
	?GetLayoutPos@Element@DirectUI@@QAEHXZ
	?GetLine@CCBaseScrollBar@DirectUI@@UAEHXZ
	?GetLine@FlowLayout@DirectUI@@QAEHPAVElement@2@0@Z
	?GetLine@ScrollBar@DirectUI@@UAEHXZ
	?GetLine@VerticalFlowLayout@DirectUI@@QAEHPAVElement@2@0@Z
	?GetLineSize@CCTrackBar@DirectUI@@QAEHXZ
	?GetLocation@Element@DirectUI@@QAEPBUtagPOINT@@PAPAVValue@2@@Z
	?GetMargin@Element@DirectUI@@QAEPBUtagRECT@@PAPAVValue@2@@Z
	?GetMaxLength@Edit@DirectUI@@QAEHXZ
	?GetMaximum@CCBaseScrollBar@DirectUI@@UAEHXZ
	?GetMaximum@Progress@DirectUI@@QAEHXZ
	?GetMaximum@ScrollBar@DirectUI@@UAEHXZ
	?GetMinSize@Element@DirectUI@@QAEPBUtagSIZE@@PAPAVValue@2@@Z
	?GetMinimum@CCBaseScrollBar@DirectUI@@UAEHXZ
	?GetMinimum@Progress@DirectUI@@QAEHXZ
	?GetMinimum@ScrollBar@DirectUI@@UAEHXZ
	?GetModule@ClassInfoBase@DirectUI@@UBEPAUHINSTANCE__@@XZ
	?GetModuleBase@CallstackTracker@DirectUI@@AAE_KPAX_K@Z
	?GetMouseFocused@Element@DirectUI@@QAE_NXZ
	?GetMouseWithin@Element@DirectUI@@QAE_NXZ
	?GetMouseWithinChild@Element@DirectUI@@QAEPAV12@XZ
	?GetMultiline@Edit@DirectUI@@QAE_NXZ
	?GetName@ClassInfoBase@DirectUI@@UBEPBGXZ
	?GetNote@CCCommandLink@DirectUI@@QAEPBGPAPAVValue@2@@Z
	?GetNotificationSinkHWND@XElement@DirectUI@@UAEPAUHWND__@@XZ
	?GetNull@Value@DirectUI@@SGPAV12@XZ
	?GetOptimizeMove@HWNDHost@DirectUI@@QAE_NXZ
	?GetOrder@ScrollBar@DirectUI@@QAEHXZ
	?GetOverhang@Element@DirectUI@@QAE_NXZ
	?GetOverrideButtonBackground@CCPushButton@DirectUI@@QAE_NXZ
	?GetPICount@ClassInfoBase@DirectUI@@UBEIXZ
	?GetPadding@Element@DirectUI@@QAEPBUtagRECT@@PAPAVValue@2@@Z
	?GetPage@CCBaseScrollBar@DirectUI@@UAEHXZ
	?GetPage@Pages@DirectUI@@QAEPAVElement@2@I@Z
	?GetPage@Pages@DirectUI@@QAEPAVElement@2@PBG@Z
	?GetPage@ScrollBar@DirectUI@@UAEHXZ
	?GetPageInc@BaseScrollBar@DirectUI@@AAEHXZ
	?GetPageRCID@TaskPage@DirectUI@@MAEIXZ
	?GetPageResID@TaskPage@DirectUI@@MAEPBGXZ
	?GetPages@Browser@DirectUI@@QAEPAVPages@2@XZ
	?GetParent@Element@DirectUI@@QAEPAV12@XZ
	?GetParentHWND@TaskPage@DirectUI@@QAEPAUHWND__@@XZ
	?GetParser@DUIFactory@DirectUI@@QAEPAVDUIXmlParser@2@XZ
	?GetParserCommon@DUIXmlParser@DirectUI@@IAEJPAPAV12@@Z
	?GetPasswordCharacter@Edit@DirectUI@@QAEHXZ
	?GetPath@Movie@DirectUI@@QAEPBGPAPAVValue@2@@Z
	?GetPatternProvider@ElementProvider@DirectUI@@UAGJHPAPAUIUnknown@@@Z
	?GetPinning@BaseScrollViewer@DirectUI@@QAEHXZ
	?GetPixelOffsetMode@Movie@DirectUI@@QAEHXZ
	?GetPlay@AnimationStrip@DirectUI@@QAE_NXZ
	?GetPlayAllFramesMode@Movie@DirectUI@@QAE_NXZ
	?GetPoint@Value@DirectUI@@QAEPBUtagPOINT@@XZ
	?GetPointZero@Value@DirectUI@@SGPAV12@XZ
	?GetPosition@CCBaseScrollBar@DirectUI@@UAEHXZ
	?GetPosition@Progress@DirectUI@@QAEHXZ
	?GetPosition@ScrollBar@DirectUI@@UAEHXZ
	?GetPressed@Button@DirectUI@@QAE_NXZ
	?GetProcs@Schema@DirectUI@@CGJXZ
	?GetPropValPairInfo@DUIXmlParser@DirectUI@@IAEJPAUIXmlReader@@PAUIClassInfo@2@PBG2PAPBUPropertyInfo@2@PAPAVValue@2@@Z
	?GetPropValPairInfo@DUIXmlParser@DirectUI@@IAEJULINEINFO@2@PAUIClassInfo@2@PBG2PAPBUPropertyInfo@2@PAPAVValue@2@@Z
	?GetProperty@Bind@DirectUI@@QAEPBGPAPAVValue@2@@Z
	?GetProperty@ElementProxy@DirectUI@@IAEJPAUtagVARIANT@@H@Z
	?GetPropertyValue@ElementProvider@DirectUI@@UAGJHPAUtagVARIANT@@@Z
	?GetProportional@CCBaseScrollBar@DirectUI@@UAE_NXZ
	?GetProportional@ScrollBar@DirectUI@@UAE_NXZ
	?GetProvider@XElement@DirectUI@@QAEPAUIXProvider@2@XZ
	?GetProviderOptions@ElementProxy@DirectUI@@IAEJPAW4ProviderOptions@@@Z
	?GetProxyCreator@?$PatternProvider@VExpandCollapseProvider@DirectUI@@UIExpandCollapseProvider@@$00@DirectUI@@UAEP6GPAVProviderProxy@2@PAVElement@2@@ZXZ
	?GetProxyCreator@?$PatternProvider@VGridItemProvider@DirectUI@@UIGridItemProvider@@$01@DirectUI@@UAEP6GPAVProviderProxy@2@PAVElement@2@@ZXZ
	?GetProxyCreator@?$PatternProvider@VGridProvider@DirectUI@@UIGridProvider@@$02@DirectUI@@UAEP6GPAVProviderProxy@2@PAVElement@2@@ZXZ
	?GetProxyCreator@?$PatternProvider@VInvokeProvider@DirectUI@@UIInvokeProvider@@$0A@@DirectUI@@UAEP6GPAVProviderProxy@2@PAVElement@2@@ZXZ
	?GetProxyCreator@?$PatternProvider@VRangeValueProvider@DirectUI@@UIRangeValueProvider@@$03@DirectUI@@UAEP6GPAVProviderProxy@2@PAVElement@2@@ZXZ
	?GetProxyCreator@?$PatternProvider@VScrollItemProvider@DirectUI@@UIScrollItemProvider@@$05@DirectUI@@UAEP6GPAVProviderProxy@2@PAVElement@2@@ZXZ
	?GetProxyCreator@?$PatternProvider@VScrollProvider@DirectUI@@UIScrollProvider@@$04@DirectUI@@UAEP6GPAVProviderProxy@2@PAVElement@2@@ZXZ
	?GetProxyCreator@?$PatternProvider@VSelectionItemProvider@DirectUI@@UISelectionItemProvider@@$06@DirectUI@@UAEP6GPAVProviderProxy@2@PAVElement@2@@ZXZ
	?GetProxyCreator@?$PatternProvider@VSelectionProvider@DirectUI@@UISelectionProvider@@$07@DirectUI@@UAEP6GPAVProviderProxy@2@PAVElement@2@@ZXZ
	?GetProxyCreator@?$PatternProvider@VTableItemProvider@DirectUI@@UITableItemProvider@@$09@DirectUI@@UAEP6GPAVProviderProxy@2@PAVElement@2@@ZXZ
	?GetProxyCreator@?$PatternProvider@VTableProvider@DirectUI@@UITableProvider@@$08@DirectUI@@UAEP6GPAVProviderProxy@2@PAVElement@2@@ZXZ
	?GetProxyCreator@?$PatternProvider@VToggleProvider@DirectUI@@UIToggleProvider@@$0L@@DirectUI@@UAEP6GPAVProviderProxy@2@PAVElement@2@@ZXZ
	?GetProxyCreator@?$PatternProvider@VValueProvider@DirectUI@@UIValueProvider@@$0M@@DirectUI@@UAEP6GPAVProviderProxy@2@PAVElement@2@@ZXZ
	?GetProxyCreator@ElementProvider@DirectUI@@UAEP6GPAVProviderProxy@2@PAVElement@2@@ZXZ
	?GetProxyCreator@ExpandCollapseProvider@DirectUI@@UAEP6GPAVProviderProxy@2@PAVElement@2@@ZXZ
	?GetProxyCreator@GridItemProvider@DirectUI@@UAEP6GPAVProviderProxy@2@PAVElement@2@@ZXZ
	?GetProxyCreator@GridProvider@DirectUI@@UAEP6GPAVProviderProxy@2@PAVElement@2@@ZXZ
	?GetProxyCreator@HWNDElementProvider@DirectUI@@UAEP6GPAVProviderProxy@2@PAVElement@2@@ZXZ
	?GetProxyCreator@InvokeProvider@DirectUI@@UAEP6GPAVProviderProxy@2@PAVElement@2@@ZXZ
	?GetProxyCreator@RangeValueProvider@DirectUI@@UAEP6GPAVProviderProxy@2@PAVElement@2@@ZXZ
	?GetProxyCreator@ScrollItemProvider@DirectUI@@UAEP6GPAVProviderProxy@2@PAVElement@2@@ZXZ
	?GetProxyCreator@ScrollProvider@DirectUI@@UAEP6GPAVProviderProxy@2@PAVElement@2@@ZXZ
	?GetProxyCreator@SelectionItemProvider@DirectUI@@UAEP6GPAVProviderProxy@2@PAVElement@2@@ZXZ
	?GetProxyCreator@SelectionProvider@DirectUI@@UAEP6GPAVProviderProxy@2@PAVElement@2@@ZXZ
	?GetProxyCreator@TableItemProvider@DirectUI@@UAEP6GPAVProviderProxy@2@PAVElement@2@@ZXZ
	?GetProxyCreator@TableProvider@DirectUI@@UAEP6GPAVProviderProxy@2@PAVElement@2@@ZXZ
	?GetProxyCreator@ToggleProvider@DirectUI@@UAEP6GPAVProviderProxy@2@PAVElement@2@@ZXZ
	?GetProxyCreator@ValueProvider@DirectUI@@UAEP6GPAVProviderProxy@2@PAVElement@2@@ZXZ
	?GetRangeMax@CCTrackBar@DirectUI@@QAEHXZ
	?GetRangeMin@CCTrackBar@DirectUI@@QAEHXZ
	?GetRect@Value@DirectUI@@QAEPBUtagRECT@@XZ
	?GetRectZero@Value@DirectUI@@SGPAV12@XZ
	?GetRefCount@Value@DirectUI@@QBEHXZ
	?GetReferencePoint@RefPointElement@DirectUI@@QAEPBUtagPOINT@@PAPAVValue@2@@Z
	?GetRegisteredDefaultButton@DialogElement@DirectUI@@QAEPAVElement@2@XZ
	?GetRepeat@Movie@DirectUI@@QAE_NXZ
	?GetResourceHInstance@DUIXmlParser@DirectUI@@QAEPAUHINSTANCE__@@XZ
	?GetRoot@Element@DirectUI@@QAEPAV12@XZ
	?GetRoot@XProvider@DirectUI@@IAEPAVElement@2@XZ
	?GetRootRelativeBounds@Element@DirectUI@@QAEJPAUtagRECT@@@Z
	?GetRow@GridItemProxy@DirectUI@@AAEJPAH@Z
	?GetRowCount@GridProxy@DirectUI@@AAEJPAH@Z
	?GetRowHeaderItems@TableItemProvider@DirectUI@@UAGJPAPAUtagSAFEARRAY@@@Z
	?GetRowHeaders@TableProvider@DirectUI@@UAGJPAPAUtagSAFEARRAY@@@Z
	?GetRuntimeId@ElementProvider@DirectUI@@UAGJPAPAUtagSAFEARRAY@@@Z
	?GetRuntimeId@ElementProxy@DirectUI@@IAEJPAPAUtagSAFEARRAY@@@Z
	?GetScrollBar@ScrollProxy@DirectUI@@AAEPAVBaseScrollBar@2@_N@Z
	?GetScrollPercent@ScrollProxy@DirectUI@@AAEJ_NPAN@Z
	?GetScrollable@ScrollProxy@DirectUI@@AAEJ_NPAH@Z
	?GetSelected@Element@DirectUI@@QAE_NXZ
	?GetSelection@BrowserSelectionProxy@DirectUI@@AAEJPAPAUtagSAFEARRAY@@@Z
	?GetSelection@Combobox@DirectUI@@QAEHXZ
	?GetSelection@SelectionProvider@DirectUI@@UAGJPAPAUtagSAFEARRAY@@@Z
	?GetSelection@Selector@DirectUI@@QAEPAVElement@2@XZ
	?GetSelectionContainer@SelectorSelectionItemProxy@DirectUI@@AAEJPAPAUIRawElementProviderSimple@@@Z
	?GetShadowIntensity@Element@DirectUI@@QAEHXZ
	?GetSheet@DUIXmlParser@DirectUI@@QAEJPBGPAPAVValue@2@@Z
	?GetSheet@Element@DirectUI@@QAEPAVStyleSheet@2@XZ
	?GetSheetContext@DUIXmlParser@DirectUI@@QAEPAXXZ
	?GetSheetNull@Value@DirectUI@@SGPAV12@XZ
	?GetShortcut@Element@DirectUI@@QAEHXZ
	?GetShortcutChar@Element@DirectUI@@QAEGXZ
	?GetSinkRect@HWNDHost@DirectUI@@AAEXPBUtagRECT@@PAU3@@Z
	?GetSize@Value@DirectUI@@QAEPBUtagSIZE@@XZ
	?GetSizeZero@Value@DirectUI@@SGPAV12@XZ
	?GetSmoothingMode@Movie@DirectUI@@QAEHXZ
	?GetStaticColor@HWNDHost@DirectUI@@IAE_NPAUHDC__@@PAPAUHBRUSH__@@@Z
	?GetString@EventManager@DirectUI@@CGJPAUtagVARIANT@@PAVValue@2@@Z
	?GetString@Value@DirectUI@@QAEPBGXZ
	?GetStringNull@Value@DirectUI@@SGPAV12@XZ
	?GetStyle@CCTreeView@DirectUI@@QAEKXZ
	?GetStyleSheet@Value@DirectUI@@QAEPAVStyleSheet@2@XZ
	?GetSurfaceType@Surface@DirectUI@@SG?AW4EType@12@I@Z
	?GetSurfaceType@Surface@DirectUI@@SGIW4EType@12@@Z
	?GetTargetPage@Navigator@DirectUI@@QAEPBGPAPAVValue@2@@Z
	?GetTextGlowSize@Element@DirectUI@@QAEHXZ
	?GetTextHeight@Edit@DirectUI@@AAEIXZ
	?GetThemeChanged@HWNDHost@DirectUI@@IAEHXZ
	?GetThemedBorder@Edit@DirectUI@@QAE_NXZ
	?GetThumbPosition@CCTrackBar@DirectUI@@QAEHXZ
	?GetToggleState@EventManager@DirectUI@@CGXPAUtagVARIANT@@@Z
	?GetToggleState@ToggleProxy@DirectUI@@AAEJPAW4ToggleState@@@Z
	?GetTooltip@Element@DirectUI@@QAE_NXZ
	?GetTooltipMaxWidth@Element@DirectUI@@QAEHXZ
	?GetTopLevel@Element@DirectUI@@QAEPAV12@XZ
	?GetTracking@CCBaseScrollBar@DirectUI@@QAE_NXZ
	?GetTransparent@HWNDHost@DirectUI@@QAE_NXZ
	?GetTreeAlphaLevel@Element@DirectUI@@QAEMXZ
	?GetType@DCSurface@DirectUI@@UBE?AW4EType@Surface@2@XZ
	?GetType@Value@DirectUI@@QBEHXZ
	?GetTypeInfo@DuiAccessible@DirectUI@@UAGJIKPAPAUITypeInfo@@@Z
	?GetTypeInfoCount@DuiAccessible@DirectUI@@UAGJPAI@Z
	?GetUIState@HWNDElement@DirectUI@@QAEGXZ
	?GetUnavailable@Value@DirectUI@@SGPAV12@XZ
	?GetUnset@Value@DirectUI@@SGPAV12@XZ
	?GetVScroll@ScrollViewer@DirectUI@@MAEPAVBaseScrollBar@2@XZ
	?GetVScroll@StyledScrollViewer@DirectUI@@MAEPAVBaseScrollBar@2@XZ
	?GetValue@Element@DirectUI@@QAEPAVValue@2@P6GPBUPropertyInfo@2@XZHPAUUpdateCache@2@@Z
	?GetValue@Element@DirectUI@@QAEPAVValue@2@PBUPropertyInfo@2@HPAUUpdateCache@2@@Z
	?GetValue@ValueProxy@DirectUI@@AAEJPAPAG@Z
	?GetValueParser@DUIXmlParser@DirectUI@@IAEJPAPAVValueParser@ParserTools@2@@Z
	?GetVertical@ScrollBar@DirectUI@@QAE_NXZ
	?GetViewSize@ScrollProxy@DirectUI@@AAEJ_NPAN@Z
	?GetViewer@ScrollProxy@DirectUI@@AAEJPAPAVViewer@2@@Z
	?GetVisible@Element@DirectUI@@QAE_NXZ
	?GetWantTabs@Edit@DirectUI@@QAE_NXZ
	?GetWidth@Element@DirectUI@@QAEHXZ
	?GetWinStyle@CCBase@DirectUI@@QAEHXZ
	?GetWindow@DuiAccessible@DirectUI@@UAGJPAPAUHWND__@@@Z
	?GetWindow@HWNDHostAccessible@DirectUI@@UAGJPAPAUHWND__@@@Z
	?GetWindowActive@Element@DirectUI@@QAE_NXZ
	?GetWrapKeyboardNavigate@HWNDElement@DirectUI@@QAE_NXZ
	?GetX@Element@DirectUI@@QAEHXZ
	?GetXBarVisibility@BaseScrollViewer@DirectUI@@QAEHXZ
	?GetXOffset@BaseScrollViewer@DirectUI@@QAEHXZ
	?GetXOffset@Viewer@DirectUI@@QAEHXZ
	?GetXScrollable@BaseScrollViewer@DirectUI@@QAE_NXZ
	?GetXScrollable@Viewer@DirectUI@@QAE_NXZ
	?GetXmlLiteDll@DUIXmlParser@DirectUI@@KGJPAPAUHINSTANCE__@@@Z
	?GetY@Element@DirectUI@@QAEHXZ
	?GetYBarVisibility@BaseScrollViewer@DirectUI@@QAEHXZ
	?GetYOffset@BaseScrollViewer@DirectUI@@QAEHXZ
	?GetYOffset@Viewer@DirectUI@@QAEHXZ
	?GetYScrollable@BaseScrollViewer@DirectUI@@QAE_NXZ
	?GetYScrollable@Viewer@DirectUI@@QAE_NXZ
	?GridItemPattern@Schema@DirectUI@@2HA
	?GridItem_ColumnSpan_Property@Schema@DirectUI@@2HA
	?GridItem_Column_Property@Schema@DirectUI@@2HA
	?GridItem_Parent_Property@Schema@DirectUI@@2HA
	?GridItem_RowSpan_Property@Schema@DirectUI@@2HA
	?GridItem_Row_Property@Schema@DirectUI@@2HA
	?GridPattern@Schema@DirectUI@@2HA
	?Grid_ColumnCount_Property@Schema@DirectUI@@2HA
	?Grid_RowCount_Property@Schema@DirectUI@@2HA
	?GroupControlType@Schema@DirectUI@@2HA
	?HandleAccChange@EventManager@DirectUI@@CGJPAVElement@2@PAUIRawElementProviderSimple@@PAVValue@2@2@Z
	?HandleAccDesc@EventManager@DirectUI@@CGJPAVElement@2@PAUIRawElementProviderSimple@@PAVValue@2@2@Z
	?HandleAccPatternChange@EventManager@DirectUI@@CGJPAVElement@2@PAUIRawElementProviderSimple@@IIHPAUtagVARIANT@@2P6GX2@Z@Z
	?HandleAccRoleEvent@EventManager@DirectUI@@CGJPAUIRawElementProviderSimple@@PAVValue@2@1@Z
	?HandleAccStateChange@EventManager@DirectUI@@CGJPAUIRawElementProviderSimple@@IIHPAUtagVARIANT@@1@Z
	?HandleBoolProp@EventManager@DirectUI@@CGJPAVElement@2@P6G_N0@ZPAUIRawElementProviderSimple@@HPAVValue@2@3@Z
	?HandleChildrenEvent@EventManager@DirectUI@@CGJPAVElement@2@PAVValue@2@1@Z
	?HandleEnterKeyProp@DialogElement@DirectUI@@SGPBUPropertyInfo@2@XZ
	?HandleRangeValue@EventManager@DirectUI@@CGJPAVElement@2@PAUIRawElementProviderSimple@@PAVValue@2@2@Z
	?HandleScrollPos@EventManager@DirectUI@@CGJPAVElement@2@PAUIRawElementProviderSimple@@PAVValue@2@2@Z
	?HandleSelectedChange@EventManager@DirectUI@@CGJPAUIRawElementProviderSimple@@PAVValue@2@@Z
	?HandleStringProp@EventManager@DirectUI@@CGJPAUIRawElementProviderSimple@@HPAVValue@2@1@Z
	?HandleUiaDestroyListener@Element@DirectUI@@UAEXXZ
	?HandleUiaEventListener@Element@DirectUI@@UAEXPAUEvent@2@@Z
	?HandleUiaPropertyChangingListener@Element@DirectUI@@UAEXPBUPropertyInfo@2@@Z
	?HandleUiaPropertyListener@Element@DirectUI@@UAEXPBUPropertyInfo@2@HPAVValue@2@1@Z
	?HandleVisibilityChange@EventManager@DirectUI@@CGJPAVElement@2@I@Z
	?HasAnimation@Element@DirectUI@@QAE_NXZ
	?HasBorder@Element@DirectUI@@QAE_NXZ
	?HasChildren@Element@DirectUI@@QAE_NXZ
	?HasContent@Element@DirectUI@@QAE_NXZ
	?HasKeyboardFocusProperty@Schema@DirectUI@@2HA
	?HasLayout@Element@DirectUI@@QAE_NXZ
	?HasMargin@Element@DirectUI@@QAE_NXZ
	?HasPadding@Element@DirectUI@@QAE_NXZ
	?HasShieldProp@CCPushButton@DirectUI@@SGPBUPropertyInfo@2@XZ
	?HaveWin32Focus@HWNDHost@DirectUI@@AAE_NXZ
	?HeaderControlType@Schema@DirectUI@@2HA
	?HeaderItemControlType@Schema@DirectUI@@2HA
	?HeightProp@Element@DirectUI@@SGPBUPropertyInfo@2@XZ
	?HelpTextProperty@Schema@DirectUI@@2HA
	?HideWindow@NativeHWNDHost@DirectUI@@QAEXXZ
	?HideWindow@XHost@DirectUI@@QAEXXZ
	?HighDPIProp@Element@DirectUI@@SGPBUPropertyInfo@2@XZ
	?Home@BaseScrollBar@DirectUI@@UAEXXZ
	?Host@NativeHWNDHost@DirectUI@@QAEXPAVElement@2@@Z
	?Host@XHost@DirectUI@@QAEXPAVElement@2@@Z
	?Hosted@PushButton@DirectUI@@SG?AVUID@@XZ
	?HyperlinkControlType@Schema@DirectUI@@2HA
	?IDProp@Element@DirectUI@@SGPBUPropertyInfo@2@XZ
	?INITIALSTACKSKIP@CallstackTracker@DirectUI@@0HB
	?ImageControlType@Schema@DirectUI@@2HA
	?Init@?$PatternProvider@VExpandCollapseProvider@DirectUI@@UIExpandCollapseProvider@@$00@DirectUI@@UAEXPAVElementProvider@2@@Z
	?Init@?$PatternProvider@VGridItemProvider@DirectUI@@UIGridItemProvider@@$01@DirectUI@@UAEXPAVElementProvider@2@@Z
	?Init@?$PatternProvider@VGridProvider@DirectUI@@UIGridProvider@@$02@DirectUI@@UAEXPAVElementProvider@2@@Z
	?Init@?$PatternProvider@VInvokeProvider@DirectUI@@UIInvokeProvider@@$0A@@DirectUI@@UAEXPAVElementProvider@2@@Z
	?Init@?$PatternProvider@VRangeValueProvider@DirectUI@@UIRangeValueProvider@@$03@DirectUI@@UAEXPAVElementProvider@2@@Z
	?Init@?$PatternProvider@VScrollItemProvider@DirectUI@@UIScrollItemProvider@@$05@DirectUI@@UAEXPAVElementProvider@2@@Z
	?Init@?$PatternProvider@VScrollProvider@DirectUI@@UIScrollProvider@@$04@DirectUI@@UAEXPAVElementProvider@2@@Z
	?Init@?$PatternProvider@VSelectionItemProvider@DirectUI@@UISelectionItemProvider@@$06@DirectUI@@UAEXPAVElementProvider@2@@Z
	?Init@?$PatternProvider@VSelectionProvider@DirectUI@@UISelectionProvider@@$07@DirectUI@@UAEXPAVElementProvider@2@@Z
	?Init@?$PatternProvider@VTableItemProvider@DirectUI@@UITableItemProvider@@$09@DirectUI@@UAEXPAVElementProvider@2@@Z
	?Init@?$PatternProvider@VTableProvider@DirectUI@@UITableProvider@@$08@DirectUI@@UAEXPAVElementProvider@2@@Z
	?Init@?$PatternProvider@VToggleProvider@DirectUI@@UIToggleProvider@@$0L@@DirectUI@@UAEXPAVElementProvider@2@@Z
	?Init@?$PatternProvider@VValueProvider@DirectUI@@UIValueProvider@@$0M@@DirectUI@@UAEXPAVElementProvider@2@@Z
	?Init@AutoThread@DirectUI@@QAEJXZ
	?Init@BrowserSelectionProxy@DirectUI@@MAEXPAVElement@2@@Z
	?Init@CallstackTracker@DirectUI@@SGHXZ
	?Init@ElementProvider@DirectUI@@MAEJPAVElement@2@PAVInvokeHelper@2@@Z
	?Init@ElementProviderManager@DirectUI@@SGJXZ
	?Init@ElementProxy@DirectUI@@MAEXPAVElement@2@@Z
	?Init@EventManager@DirectUI@@SGJXZ
	?Init@ExpandCollapseProxy@DirectUI@@MAEXPAVElement@2@@Z
	?Init@GridItemProxy@DirectUI@@MAEXPAVElement@2@@Z
	?Init@GridProxy@DirectUI@@MAEXPAVElement@2@@Z
	?Init@HWNDElementProvider@DirectUI@@MAEJPAVHWNDElement@2@PAVInvokeHelper@2@@Z
	?Init@HWNDElementProxy@DirectUI@@UAEXPAVHWNDElement@2@@Z
	?Init@InvokeHelper@DirectUI@@QAEHK@Z
	?Init@InvokeManager@DirectUI@@SGJXZ
	?Init@InvokeProxy@DirectUI@@MAEXPAVElement@2@@Z
	?Init@NavReference@DirectUI@@QAEXPAVElement@2@PAUtagRECT@@@Z
	?Init@NavScoring@DirectUI@@QAEXPAVElement@2@HPBUNavReference@2@@Z
	?Init@NavigatorSelectionItemProxy@DirectUI@@MAEXPAVElement@2@@Z
	?Init@ProgressRangeValueProxy@DirectUI@@MAEXPAVElement@2@@Z
	?Init@ProviderProxy@DirectUI@@MAEXPAVElement@2@@Z
	?Init@RangeValueProxy@DirectUI@@MAEXPAVElement@2@@Z
	?Init@Schema@DirectUI@@SGJXZ
	?Init@ScrollBarRangeValueProxy@DirectUI@@MAEXPAVElement@2@@Z
	?Init@ScrollItemProxy@DirectUI@@MAEXPAVElement@2@@Z
	?Init@ScrollProxy@DirectUI@@MAEXPAVElement@2@@Z
	?Init@SelectionItemProxy@DirectUI@@MAEXPAVElement@2@@Z
	?Init@SelectionProxy@DirectUI@@MAEXPAVElement@2@@Z
	?Init@SelectorSelectionItemProxy@DirectUI@@MAEXPAVElement@2@@Z
	?Init@SelectorSelectionProxy@DirectUI@@MAEXPAVElement@2@@Z
	?Init@TableItemProxy@DirectUI@@MAEXPAVElement@2@@Z
	?Init@TableProxy@DirectUI@@MAEXPAVElement@2@@Z
	?Init@ToggleProxy@DirectUI@@MAEXPAVElement@2@@Z
	?Init@ValueProxy@DirectUI@@MAEXPAVElement@2@@Z
	?InitDefaultFontSize@Element@DirectUI@@SGXXZ
	?InitFailed@CallstackTracker@DirectUI@@CGHXZ
	?InitProcess@FontCache@DirectUI@@SGJXZ
	?InitPropSheetPage@TaskPage@DirectUI@@MAEXPAU_PROPSHEETPAGEW@@@Z
	?InitThread@FontCache@DirectUI@@SGJXZ
	?Initialize@AccessibleButton@DirectUI@@QAEJPAVElement@2@PAK@Z
	?Initialize@AnimationStrip@DirectUI@@QAEJIPAVElement@2@PAK@Z
	?Initialize@AutoButton@DirectUI@@QAEJPAVElement@2@PAK@Z
	?Initialize@BaseScrollViewer@DirectUI@@QAEJPAVElement@2@PAK@Z
	?Initialize@Bind@DirectUI@@QAEJPAVElement@2@PAK@Z
	?Initialize@BorderLayout@DirectUI@@QAEXXZ
	?Initialize@Browser@DirectUI@@QAEJPAVElement@2@PAK@Z
	?Initialize@Button@DirectUI@@QAEJIPAVElement@2@PAK@Z
	?Initialize@CCBase@DirectUI@@QAEJIPAVElement@2@PAK@Z
	?Initialize@CCBaseScrollBar@DirectUI@@QAEJIPAVElement@2@PAK@Z
	?Initialize@CCListView@DirectUI@@QAEJIPAVElement@2@PAK@Z
	?Initialize@CCProgressBar@DirectUI@@QAEJIPAVElement@2@PAK@Z
	?Initialize@CheckBoxGlyph@DirectUI@@QAEJIPAVElement@2@PAK@Z
	?Initialize@ClassInfoBase@DirectUI@@QAEJPAUHINSTANCE__@@PBG_NPBQBUPropertyInfo@2@I@Z
	?Initialize@Clipper@DirectUI@@QAEJPAVElement@2@PAK@Z
	?Initialize@Combobox@DirectUI@@QAEJIPAVElement@2@PAK@Z
	?Initialize@DUIXmlParser@DirectUI@@IAEJXZ
	?Initialize@DuiAccessible@DirectUI@@QAEXPAVElement@2@@Z
	?Initialize@Edit@DirectUI@@QAEJIPAVElement@2@PAK@Z
	?Initialize@Element@DirectUI@@QAEJIPAV12@PAK@Z
	?Initialize@Expando@DirectUI@@QAEJPAVElement@2@PAK@Z
	?Initialize@ExpandoButtonGlyph@DirectUI@@QAEJIPAVElement@2@PAK@Z
	?Initialize@FillLayout@DirectUI@@QAEXXZ
	?Initialize@FlowLayout@DirectUI@@QAEX_NIII@Z
	?Initialize@GridLayout@DirectUI@@QAEXHH@Z
	?Initialize@HWNDElement@DirectUI@@QAEJPAUHWND__@@_NIPAVElement@2@PAK@Z
	?Initialize@HWNDElementAccessible@DirectUI@@QAEJPAVHWNDElement@2@@Z
	?Initialize@HWNDHost@DirectUI@@QAEJIIPAVElement@2@PAK@Z
	?Initialize@HWNDHostAccessible@DirectUI@@QAEJPAVElement@2@PAUIAccessible@@@Z
	?Initialize@Layout@DirectUI@@QAEXXZ
	?Initialize@Macro@DirectUI@@QAEJPAVElement@2@PAK@Z
	?Initialize@NativeHWNDHost@DirectUI@@QAEJPBG0PAUHWND__@@PAUHICON__@@HHHHHHPAUHINSTANCE__@@I@Z
	?Initialize@NativeHWNDHost@DirectUI@@QAEJPBGPAUHWND__@@PAUHICON__@@HHHHHHI@Z
	?Initialize@Navigator@DirectUI@@QAEJPAVElement@2@PAK@Z
	?Initialize@NineGridLayout@DirectUI@@QAEXXZ
	?Initialize@PText@DirectUI@@QAEJPAVElement@2@PAK@Z
	?Initialize@Page@DirectUI@@QAEJPAVElement@2@PAK@Z
	?Initialize@Pages@DirectUI@@QAEJPAVElement@2@PAK@Z
	?Initialize@Progress@DirectUI@@QAEJPAVElement@2@PAK@Z
	?Initialize@RadioButtonGlyph@DirectUI@@QAEJIPAVElement@2@PAK@Z
	?Initialize@RefPointElement@DirectUI@@QAEJIPAVElement@2@PAK@Z
	?Initialize@RepeatButton@DirectUI@@QAEJIPAVElement@2@PAK@Z
	?Initialize@Repeater@DirectUI@@QAEJPAVElement@2@PAK@Z
	?Initialize@RowLayout@DirectUI@@QAEJHII@Z
	?Initialize@ScrollBar@DirectUI@@QAEJ_NPAVElement@2@PAK@Z
	?Initialize@Selector@DirectUI@@QAEJPAVElement@2@PAK@Z
	?Initialize@SelectorNoDefault@DirectUI@@QAEJPAVElement@2@PAK@Z
	?Initialize@TableLayout@DirectUI@@QAEXHHHPAH@Z
	?Initialize@TextGraphic@DirectUI@@QAEJPAVElement@2@PAK@Z
	?Initialize@Thumb@DirectUI@@QAEJIPAVElement@2@PAK@Z
	?Initialize@UnknownElement@DirectUI@@QAEJIPAVElement@2@PAK@Z
	?Initialize@VerticalFlowLayout@DirectUI@@QAEX_NIII@Z
	?Initialize@Viewer@DirectUI@@QAEJPAVElement@2@PAK@Z
	?Initialize@XBaby@DirectUI@@IAEJPAVIXElementCP@2@PAVXProvider@2@PAUHWND__@@PAVElement@2@PAK@Z
	?Initialize@XElement@DirectUI@@QAEJIPAVElement@2@PAK@Z
	?Initialize@XHost@DirectUI@@QAEJPAVIXElementCP@2@@Z
	?Initialize@XProvider@DirectUI@@QAEJPAVElement@2@PAVIXProviderCP@2@@Z
	?Initialize@XResourceProvider@DirectUI@@QAEJPAUHINSTANCE__@@PBG11@Z
	?InitializeDllInfo@CallstackTracker@DirectUI@@CGHXZ
	?InitializeParserFromXmlLiteReader@DUIXmlParser@DirectUI@@IAEJPAUIXmlReader@@@Z
	?InitializeSymbols@CallstackTracker@DirectUI@@CGHXZ
	?Insert@Element@DirectUI@@QAEJPAV12@I@Z
	?Insert@Element@DirectUI@@UAEJPAPAV12@II@Z
	?InsertItem@CCTreeView@DirectUI@@QAEPAU_TREEITEM@@PAGIQAU3@1@Z
	?InsertItem@CCTreeView@DirectUI@@QAEPAU_TREEITEM@@PBUtagTVINSERTSTRUCTW@@@Z
	?InternalCreate@TableLayout@DirectUI@@SGJHHHPAHPAPAVLayout@2@@Z
	?InternalEnsureVisible@Viewer@DirectUI@@AAE_NHHHH@Z
	?InterpolationModeProp@Movie@DirectUI@@SGPBUPropertyInfo@2@XZ
	?Invoke@DuiAccessible@DirectUI@@UAGJJABU_GUID@@KGPAUtagDISPPARAMS@@PAUtagVARIANT@@PAUtagEXCEPINFO@@PAI@Z
	?Invoke@InvokeProvider@DirectUI@@UAGJXZ
	?Invoke@Proxy@DirectUI@@IAEXIPAX@Z
	?InvokeAnimation@Element@DirectUI@@QAEXHI@Z
	?InvokeAnimation@Element@DirectUI@@QAEXIIMM_N@Z
	?InvokeInvokedEvent@Schema@DirectUI@@2HA
	?InvokePattern@Schema@DirectUI@@2HA
	?IsButtonEnabledAndVisible@DialogElement@DirectUI@@KG_NPAVElement@2@@Z
	?IsCacheDirty@Layout@DirectUI@@IAE_NXZ
	?IsCompositedText@Element@DirectUI@@QAE_NXZ
	?IsContentElementProperty@Schema@DirectUI@@2HA
	?IsContentProtected@Edit@DirectUI@@UAE_NXZ
	?IsContentProtected@Element@DirectUI@@UAE_NXZ
	?IsControlElementProperty@Schema@DirectUI@@2HA
	?IsCorrectImageHlpVersion@CallstackTracker@DirectUI@@CGHXZ
	?IsDefaultCAlign@Element@DirectUI@@QAE_NXZ
	?IsDefaultCursor@Element@DirectUI@@QAE_NXZ
	?IsDescendent@Element@DirectUI@@QAE_NPAV12@@Z
	?IsDescendent@XElement@DirectUI@@QAE_NPAVElement@2@@Z
	?IsDescendent@XProvider@DirectUI@@UAGJPAVElement@2@PA_N@Z
	?IsDestroyed@Element@DirectUI@@QAE_NXZ
	?IsEnabledProperty@Schema@DirectUI@@2HA
	?IsEqual@Value@DirectUI@@QAE_NPAV12@@Z
	?IsFirstElement@HWNDElement@DirectUI@@QAE_NPAVElement@2@@Z
	?IsGlobal@ClassInfoBase@DirectUI@@UBE_NXZ
	?IsHosted@Element@DirectUI@@QAE_NXZ
	?IsKeyboardFocusableProperty@Schema@DirectUI@@2HA
	?IsLastElement@HWNDElement@DirectUI@@QAE_NPAVElement@2@@Z
	?IsMoveDeferred@HWNDHost@DirectUI@@IAE_NXZ
	?IsOffscreen@Schema@DirectUI@@2HA
	?IsPasswordProperty@Schema@DirectUI@@2HA
	?IsPatternSupported@ElementProxy@DirectUI@@IAEJW4Pattern@Schema@2@PA_N@Z
	?IsPatternSupported@ExpandCollapseProxy@DirectUI@@SG_NPAVElement@2@@Z
	?IsPatternSupported@GridItemProxy@DirectUI@@SG_NPAVElement@2@@Z
	?IsPatternSupported@GridProxy@DirectUI@@SG_NPAVElement@2@@Z
	?IsPatternSupported@InvokeProxy@DirectUI@@SG_NPAVElement@2@@Z
	?IsPatternSupported@RangeValueProxy@DirectUI@@SG_NPAVElement@2@@Z
	?IsPatternSupported@ScrollItemProxy@DirectUI@@SG_NPAVElement@2@@Z
	?IsPatternSupported@ScrollProxy@DirectUI@@SG_NPAVElement@2@@Z
	?IsPatternSupported@SelectionItemProxy@DirectUI@@SG_NPAVElement@2@@Z
	?IsPatternSupported@SelectionProxy@DirectUI@@SG_NPAVElement@2@@Z
	?IsPatternSupported@TableItemProxy@DirectUI@@SG_NPAVElement@2@@Z
	?IsPatternSupported@TableProxy@DirectUI@@SG_NPAVElement@2@@Z
	?IsPatternSupported@ToggleProxy@DirectUI@@SG_NPAVElement@2@@Z
	?IsPatternSupported@ValueProxy@DirectUI@@SG_NPAVElement@2@@Z
	?IsPinned@BaseScrollBar@DirectUI@@QAE_NXZ
	?IsPointValid@Element@DirectUI@@AAE_NNN@Z
	?IsRTL@Element@DirectUI@@QAE_NXZ
	?IsRTLReading@Element@DirectUI@@UAE_NXZ
	?IsRoot@Element@DirectUI@@QAEHXZ
	?IsScrollable@BaseScrollBar@DirectUI@@QAE_NXZ
	?IsSelfLayout@Element@DirectUI@@QAE_NXZ
	?IsSubclassOf@ClassInfoBase@DirectUI@@UBE_NPAUIClassInfo@2@@Z
	?IsThemeClassName@DUIXmlParser@DirectUI@@KG_NPBUExprNode@ParserTools@2@@Z
	?IsValidAccessor@Element@DirectUI@@QAE_NPBUPropertyInfo@2@H_N@Z
	?IsValidProperty@ClassInfoBase@DirectUI@@UBE_NPBUPropertyInfo@2@@Z
	?IsValidValue@Element@DirectUI@@SG_NPBUPropertyInfo@2@PAVValue@2@@Z
	?IsWordWrap@Element@DirectUI@@QAE_NXZ
	?ItemContainerPattern@Schema@DirectUI@@2HA
	?ItemStatusProperty@Schema@DirectUI@@2HA
	?ItemTypeProperty@Schema@DirectUI@@2HA
	?KeyFocusedProp@Element@DirectUI@@SGPBUPropertyInfo@2@XZ
	?KeyWithinProp@Element@DirectUI@@SGPBUPropertyInfo@2@XZ
	?KeyboardNavigate@Element@DirectUI@@SG?AVUID@@XZ
	?LabeledByProperty@Schema@DirectUI@@2HA
	?LastDSConstProp@Element@DirectUI@@SGPBUPropertyInfo@2@XZ
	?LayoutInvalidatedEvent@Schema@DirectUI@@2HA
	?LayoutPosProp@Element@DirectUI@@SGPBUPropertyInfo@2@XZ
	?LayoutProp@Element@DirectUI@@SGPBUPropertyInfo@2@XZ
	?Leaving@Browser@DirectUI@@SG?AVUID@@XZ
	?LineDown@BaseScrollBar@DirectUI@@UAEXI@Z
	?LineProp@CCBaseScrollBar@DirectUI@@SGPBUPropertyInfo@2@XZ
	?LineProp@ScrollBar@DirectUI@@SGPBUPropertyInfo@2@XZ
	?LineSizeProp@CCTrackBar@DirectUI@@SGPBUPropertyInfo@2@XZ
	?LineUp@BaseScrollBar@DirectUI@@UAEXI@Z
	?ListControlType@Schema@DirectUI@@2HA
	?ListItemControlType@Schema@DirectUI@@2HA
	?LoadComCtl32@TaskPage@DirectUI@@AAEJXZ
	?LoadCommonControlExports@AnimationStrip@DirectUI@@AAEJXZ
	?LoadFromBuffer@DUIFactory@DirectUI@@QAEJPBGI0PAVElement@2@PAKPAPAV32@@Z
	?LoadFromFile@DUIFactory@DirectUI@@QAEJPBG0PAVElement@2@PAKPAPAV32@@Z
	?LoadFromPath@Movie@DirectUI@@QAEJPBG@Z
	?LoadFromResource@DUIFactory@DirectUI@@QAEJPAUHINSTANCE__@@PBG1PAVElement@2@PAKPAPAV42@1@Z
	?LoadFromResource@Movie@DirectUI@@QAEJPAUHINSTANCE__@@H@Z
	?LoadImagesIntoAnimationStrip@AnimationStrip@DirectUI@@IAEJXZ
	?LoadPage@TaskPage@DirectUI@@AAEJPAPAVElement@2@PAV32@PAPAVDUIXmlParser@2@@Z
	?LoadPage@TaskPage@DirectUI@@MAEJPAVHWNDElement@2@PAUHINSTANCE__@@PAPAVElement@2@PAPAVDUIXmlParser@2@@Z
	?LoadParser@TaskPage@DirectUI@@MAEJPAPAVDUIXmlParser@2@@Z
	?LocalizedControlTypeProperty@Schema@DirectUI@@2HA
	?Locate@RefPointElement@DirectUI@@SGPAV12@PAVElement@2@@Z
	?LocationProp@Element@DirectUI@@SGPBUPropertyInfo@2@XZ
	?LookupAccessibleRole@Schema@DirectUI@@SGHHPA_N@Z
	?LookupControlInfos@Schema@DirectUI@@CGJXZ
	?LookupElement@DUIXmlParser@DirectUI@@QAEJPAUIXmlReader@@PBGPAUHINSTANCE__@@PAPAUIClassInfo@2@@Z
	?LookupElement@DUIXmlParser@DirectUI@@QAEJULINEINFO@2@PBGPAUHINSTANCE__@@PAPAUIClassInfo@2@@Z
	?LookupEventInfos@Schema@DirectUI@@CGJXZ
	?LookupPatternInfos@Schema@DirectUI@@CGJXZ
	?LookupPropertyInfos@Schema@DirectUI@@CGJXZ
	?MapElementPoint@Element@DirectUI@@QAEXPAV12@PBUtagPOINT@@PAU3@@Z
	?MapPropertyEnumValue@DUIXmlParser@DirectUI@@IAEJPBUEnumMap@2@PBGPAH@Z
	?MapPropertyNameToPropertyInfo@DUIXmlParser@DirectUI@@IAEJULINEINFO@2@PAUIClassInfo@2@PBGPAPBUPropertyInfo@2@@Z
	?MarginProp@Element@DirectUI@@SGPBUPropertyInfo@2@XZ
	?MarkHosted@Element@DirectUI@@IAEXXZ
	?MarkNeedsDSUpdate@Element@DirectUI@@QAEXXZ
	?MarkSelfLayout@Element@DirectUI@@IAEXXZ
	?MaxLengthProp@Edit@DirectUI@@SGPBUPropertyInfo@2@XZ
	?MaximumProp@CCBaseScrollBar@DirectUI@@SGPBUPropertyInfo@2@XZ
	?MaximumProp@Progress@DirectUI@@SGPBUPropertyInfo@2@XZ
	?MaximumProp@ScrollBar@DirectUI@@SGPBUPropertyInfo@2@XZ
	?MenuBarControlType@Schema@DirectUI@@2HA
	?MenuClosedEvent@Schema@DirectUI@@2HA
	?MenuControlType@Schema@DirectUI@@2HA
	?MenuItemControlType@Schema@DirectUI@@2HA
	?MenuOpenedEvent@Schema@DirectUI@@2HA
	?MessageCallback@Edit@DirectUI@@UAEIPAUtagGMSG@@@Z
	?MessageCallback@Element@DirectUI@@UAEIPAUtagGMSG@@@Z
	?MessageCallback@HWNDHost@DirectUI@@UAEIPAUtagGMSG@@@Z
	?MinSizeProp@Element@DirectUI@@SGPBUPropertyInfo@2@XZ
	?MinimumProp@CCBaseScrollBar@DirectUI@@SGPBUPropertyInfo@2@XZ
	?MinimumProp@Progress@DirectUI@@SGPBUPropertyInfo@2@XZ
	?MinimumProp@ScrollBar@DirectUI@@SGPBUPropertyInfo@2@XZ
	?MouseFocusedProp@Element@DirectUI@@SGPBUPropertyInfo@2@XZ
	?MouseWithinProp@Element@DirectUI@@SGPBUPropertyInfo@2@XZ
	?MultilineProp@Edit@DirectUI@@SGPBUPropertyInfo@2@XZ
	?MultipleViewPattern@Schema@DirectUI@@2HA
	?NameProperty@Schema@DirectUI@@2HA
	?Navigate@DuiNavigate@DirectUI@@SGPAVElement@2@PAV32@PAV?$DynamicArray@PAVElement@DirectUI@@$0A@@2@H@Z
	?Navigate@ElementProvider@DirectUI@@UAGJW4NavigateDirection@@PAPAUIRawElementProviderFragment@@@Z
	?Navigate@ElementProxy@DirectUI@@IAEJW4NavigateDirection@@PAPAUIRawElementProviderFragment@@@Z
	?Navigate@XProvider@DirectUI@@UAGJHPA_N@Z
	?NeedsDSUpdate@Element@DirectUI@@QAE_NXZ
	?NewNativeWindowHandleProperty@Schema@DirectUI@@2HA
	?Next@DuiAccessible@DirectUI@@UAGJKPAUtagVARIANT@@PAK@Z
	?Next@HWNDHostAccessible@DirectUI@@UAGJKPAUtagVARIANT@@PAK@Z
	?NoteProp@CCCommandLink@DirectUI@@SGPBUPropertyInfo@2@XZ
	?NullControlType@Schema@DirectUI@@2HA
	?OnAction@AnimationStrip@DirectUI@@IAEXPAUGMA_ACTIONINFO@@@Z
	?OnAdd@BorderLayout@DirectUI@@UAEXPAVElement@2@PAPAV32@I@Z
	?OnAdd@Layout@DirectUI@@UAEXPAVElement@2@PAPAV32@I@Z
	?OnAdd@NineGridLayout@DirectUI@@UAEXPAVElement@2@PAPAV32@I@Z
	?OnAdd@ShellBorderLayout@DirectUI@@UAEXPAVElement@2@PAPAV32@I@Z
	?OnAdjustWindowSize@Combobox@DirectUI@@UAEHHHI@Z
	?OnAdjustWindowSize@HWNDHost@DirectUI@@UAEHHHI@Z
	?OnChildLostFocus@DialogElement@DirectUI@@UAE_NPAVElement@2@@Z
	?OnChildLostFocus@XBaby@DirectUI@@UAE_NPAVElement@2@@Z
	?OnChildReceivedFocus@DialogElement@DirectUI@@UAE_NPAVElement@2@@Z
	?OnChildReceivedFocus@XBaby@DirectUI@@UAE_NPAVElement@2@@Z
	?OnCompositionChanged@HWNDElement@DirectUI@@UAEXXZ
	?OnCtrlThemeChanged@HWNDHost@DirectUI@@UAE_NIIJPAJ@Z
	?OnCustomDraw@CCBase@DirectUI@@UAE_NPAUtagNMCUSTOMDRAWINFO@@PAJ@Z
	?OnDestroy@AnimationStrip@DirectUI@@MAEXXZ
	?OnDestroy@DialogElement@DirectUI@@UAEXXZ
	?OnDestroy@Element@DirectUI@@UAEXXZ
	?OnDestroy@HWNDElement@DirectUI@@UAEXXZ
	?OnDestroy@HWNDHost@DirectUI@@UAEXXZ
	?OnDestroy@Movie@DirectUI@@UAEXXZ
	?OnEvent@AutoButton@DirectUI@@UAEXPAUEvent@2@@Z
	?OnEvent@BaseScrollViewer@DirectUI@@UAEXPAUEvent@2@@Z
	?OnEvent@Browser@DirectUI@@UAEXPAUEvent@2@@Z
	?OnEvent@Element@DirectUI@@UAEXPAUEvent@2@@Z
	?OnEvent@Expando@DirectUI@@UAEXPAUEvent@2@@Z
	?OnEvent@HWNDElement@DirectUI@@UAEXPAUEvent@2@@Z
	?OnEvent@HWNDHost@DirectUI@@UAEXPAUEvent@2@@Z
	?OnEvent@Movie@DirectUI@@UAEXPAUEvent@2@@Z
	?OnEvent@Navigator@DirectUI@@UAEXPAUEvent@2@@Z
	?OnEvent@ScrollBar@DirectUI@@UAEXPAUEvent@2@@Z
	?OnEvent@Selector@DirectUI@@UAEXPAUEvent@2@@Z
	?OnEvent@SelectorNoDefault@DirectUI@@UAEXPAUEvent@2@@Z
	?OnEvent@Viewer@DirectUI@@UAEXPAUEvent@2@@Z
	?OnEvent@XBaby@DirectUI@@UAEXPAUEvent@2@@Z
	?OnEvent@XElement@DirectUI@@UAEXPAUEvent@2@@Z
	?OnGetDlgCode@DialogElement@DirectUI@@UAEXPAUtagMSG@@PAJ@Z
	?OnGetDlgCode@HWNDElement@DirectUI@@UAEXPAUtagMSG@@PAJ@Z
	?OnGroupChanged@Element@DirectUI@@UAEXH_N@Z
	?OnGroupChanged@HWNDElement@DirectUI@@UAEXH_N@Z
	?OnHosted@Combobox@DirectUI@@UAEXPAVElement@2@@Z
	?OnHosted@Element@DirectUI@@MAEXPAV12@@Z
	?OnHosted@HWNDHost@DirectUI@@MAEXPAVElement@2@@Z
	?OnHosted@Movie@DirectUI@@UAEXPAVElement@2@@Z
	?OnHosted@PushButton@DirectUI@@UAEXPAVElement@2@@Z
	?OnInput@BaseScrollViewer@DirectUI@@UAEXPAUInputEvent@2@@Z
	?OnInput@Button@DirectUI@@UAEXPAUInputEvent@2@@Z
	?OnInput@CCBase@DirectUI@@UAEXPAUInputEvent@2@@Z
	?OnInput@CCCheckBox@DirectUI@@UAEXPAUInputEvent@2@@Z
	?OnInput@CCProgressBar@DirectUI@@UAEXPAUInputEvent@2@@Z
	?OnInput@CCPushButton@DirectUI@@UAEXPAUInputEvent@2@@Z
	?OnInput@CCRadioButton@DirectUI@@UAEXPAUInputEvent@2@@Z
	?OnInput@CCSysLink@DirectUI@@UAEXPAUInputEvent@2@@Z
	?OnInput@Combobox@DirectUI@@UAEXPAUInputEvent@2@@Z
	?OnInput@DialogElement@DirectUI@@UAEXPAUInputEvent@2@@Z
	?OnInput@Edit@DirectUI@@UAEXPAUInputEvent@2@@Z
	?OnInput@Element@DirectUI@@UAEXPAUInputEvent@2@@Z
	?OnInput@HWNDElement@DirectUI@@UAEXPAUInputEvent@2@@Z
	?OnInput@HWNDHost@DirectUI@@UAEXPAUInputEvent@2@@Z
	?OnInput@RepeatButton@DirectUI@@UAEXPAUInputEvent@2@@Z
	?OnInput@Selector@DirectUI@@UAEXPAUInputEvent@2@@Z
	?OnInput@Thumb@DirectUI@@UAEXPAUInputEvent@2@@Z
	?OnInput@Viewer@DirectUI@@UAEXPAUInputEvent@2@@Z
	?OnInput@XElement@DirectUI@@UAEXPAUInputEvent@2@@Z
	?OnInvoke@InvokeHelper@DirectUI@@AAEXPAUInvokeArgs@12@@Z
	?OnInvoke@Proxy@DirectUI@@MAEXIPAX@Z
	?OnKeyFocusMoved@DialogElement@DirectUI@@UAEXPAVElement@2@0@Z
	?OnKeyFocusMoved@Element@DirectUI@@UAEXPAV12@0@Z
	?OnKeyFocusMoved@Selector@DirectUI@@UAEXPAVElement@2@0@Z
	?OnKeyFocusMoved@SelectorNoDefault@DirectUI@@UAEXPAVElement@2@0@Z
	?OnKillActive@TaskPage@DirectUI@@MAEJXZ
	?OnLayoutPosChanged@BorderLayout@DirectUI@@UAEXPAVElement@2@0HH@Z
	?OnLayoutPosChanged@Layout@DirectUI@@UAEXPAVElement@2@0HH@Z
	?OnLayoutPosChanged@NineGridLayout@DirectUI@@UAEXPAVElement@2@0HH@Z
	?OnLayoutPosChanged@ShellBorderLayout@DirectUI@@UAEXPAVElement@2@0HH@Z
	?OnListenedEvent@BaseScrollViewer@DirectUI@@UAEXPAVElement@2@PAUEvent@2@@Z
	?OnListenedEvent@DialogElement@DirectUI@@UAEXPAVElement@2@PAUEvent@2@@Z
	?OnListenedEvent@TaskPage@DirectUI@@MAEXPAVElement@2@PAUEvent@2@@Z
	?OnListenedInput@BaseScrollViewer@DirectUI@@UAEXPAVElement@2@PAUInputEvent@2@@Z
	?OnListenedInput@DialogElement@DirectUI@@UAEXPAVElement@2@PAUInputEvent@2@@Z
	?OnListenedInput@TaskPage@DirectUI@@MAEXPAVElement@2@PAUInputEvent@2@@Z
	?OnListenedPropertyChanged@BaseScrollViewer@DirectUI@@UAEXPAVElement@2@PBUPropertyInfo@2@HPAVValue@2@2@Z
	?OnListenedPropertyChanged@DialogElement@DirectUI@@UAEXPAVElement@2@PBUPropertyInfo@2@HPAVValue@2@2@Z
	?OnListenedPropertyChanged@ScrollViewer@DirectUI@@UAEXPAVElement@2@PBUPropertyInfo@2@HPAVValue@2@2@Z
	?OnListenedPropertyChanged@StyledScrollViewer@DirectUI@@UAEXPAVElement@2@PBUPropertyInfo@2@HPAVValue@2@2@Z
	?OnListenedPropertyChanged@TaskPage@DirectUI@@MAEXPAVElement@2@PBUPropertyInfo@2@HPAVValue@2@2@Z
	?OnListenedPropertyChanging@BaseScrollViewer@DirectUI@@UAE_NPAVElement@2@PBUPropertyInfo@2@HPAVValue@2@2@Z
	?OnListenedPropertyChanging@DialogElement@DirectUI@@UAE_NPAVElement@2@PBUPropertyInfo@2@HPAVValue@2@2@Z
	?OnListenedPropertyChanging@TaskPage@DirectUI@@MAE_NPAVElement@2@PBUPropertyInfo@2@HPAVValue@2@2@Z
	?OnListenerAttach@BaseScrollViewer@DirectUI@@UAEXPAVElement@2@@Z
	?OnListenerAttach@DialogElement@DirectUI@@UAEXPAVElement@2@@Z
	?OnListenerAttach@TaskPage@DirectUI@@MAEXPAVElement@2@@Z
	?OnListenerDetach@BaseScrollViewer@DirectUI@@UAEXPAVElement@2@@Z
	?OnListenerDetach@DialogElement@DirectUI@@UAEXPAVElement@2@@Z
	?OnListenerDetach@TaskPage@DirectUI@@MAEXPAVElement@2@@Z
	?OnLostDialogFocus@Button@DirectUI@@UAE_NPAVDialogElement@2@@Z
	?OnLostDialogFocus@CCBase@DirectUI@@UAE_NPAVDialogElement@2@@Z
	?OnLostDialogFocus@CCBaseCheckRadioButton@DirectUI@@UAE_NPAVDialogElement@2@@Z
	?OnLostDialogFocus@CCPushButton@DirectUI@@UAE_NPAVDialogElement@2@@Z
	?OnLostDialogFocus@CCSysLink@DirectUI@@UAE_NPAVDialogElement@2@@Z
	?OnLostDialogFocus@CheckBoxGlyph@DirectUI@@UAE_NPAVDialogElement@2@@Z
	?OnLostDialogFocus@ExpandoButtonGlyph@DirectUI@@UAE_NPAVDialogElement@2@@Z
	?OnLostDialogFocus@RadioButtonGlyph@DirectUI@@UAE_NPAVDialogElement@2@@Z
	?OnMaximumChanged@BaseScrollBar@DirectUI@@QAEXPAVValue@2@@Z
	?OnMessage@CCBaseScrollBar@DirectUI@@UAE_NIIJPAJ@Z
	?OnMessage@CCPushButton@DirectUI@@UAE_NIIJPAJ@Z
	?OnMessage@CCTrackBar@DirectUI@@UAE_NIIJPAJ@Z
	?OnMessage@HWNDHost@DirectUI@@UAE_NIIJPAJ@Z
	?OnMessage@NativeHWNDHost@DirectUI@@UAEJIIJPAJ@Z
	?OnMessage@TaskPage@DirectUI@@MAE_NIIJPAJ@Z
	?OnMessage@XElement@DirectUI@@UAE_NIIJPAJ@Z
	?OnMinimumChanged@BaseScrollBar@DirectUI@@QAEXPAVValue@2@@Z
	?OnMouseFocusMoved@Element@DirectUI@@UAEXPAV12@0@Z
	?OnNoChildWithShortcutFound@HWNDElement@DirectUI@@UAEXPAUKeyboardEvent@2@@Z
	?OnNoChildWithShortcutFound@XBaby@DirectUI@@UAEXPAUKeyboardEvent@2@@Z
	?OnNotify@CCBase@DirectUI@@UAE_NIIJPAJ@Z
	?OnNotify@CCCheckBox@DirectUI@@UAE_NIIJPAJ@Z
	?OnNotify@CCPushButton@DirectUI@@UAE_NIIJPAJ@Z
	?OnNotify@CCRadioButton@DirectUI@@UAE_NIIJPAJ@Z
	?OnNotify@CCTreeView@DirectUI@@UAE_NIIJPAJ@Z
	?OnNotify@Combobox@DirectUI@@UAE_NIIJPAJ@Z
	?OnNotify@Edit@DirectUI@@UAE_NIIJPAJ@Z
	?OnNotify@HWNDHost@DirectUI@@UAE_NIIJPAJ@Z
	?OnPageChanged@BaseScrollBar@DirectUI@@QAEXPAVValue@2@@Z
	?OnPageChanging@BaseScrollBar@DirectUI@@QAE_NPAVValue@2@@Z
	?OnPositionChanged@BaseScrollBar@DirectUI@@QAEXPAVValue@2@@Z
	?OnPositionChanging@BaseScrollBar@DirectUI@@QAE_NPAVValue@2@@Z
	?OnPropertyChanged@AccessibleButton@DirectUI@@UAEXPBUPropertyInfo@2@HPAVValue@2@1@Z
	?OnPropertyChanged@AnimationStrip@DirectUI@@MAEXPBUPropertyInfo@2@HPAVValue@2@1@Z
	?OnPropertyChanged@BaseScrollViewer@DirectUI@@UAEXPBUPropertyInfo@2@HPAVValue@2@1@Z
	?OnPropertyChanged@Browser@DirectUI@@UAEXPBUPropertyInfo@2@HPAVValue@2@1@Z
	?OnPropertyChanged@Button@DirectUI@@UAEXPBUPropertyInfo@2@HPAVValue@2@1@Z
	?OnPropertyChanged@CCBase@DirectUI@@UAEXPBUPropertyInfo@2@HPAVValue@2@1@Z
	?OnPropertyChanged@CCBaseCheckRadioButton@DirectUI@@UAEXPBUPropertyInfo@2@HPAVValue@2@1@Z
	?OnPropertyChanged@CCBaseScrollBar@DirectUI@@UAEXPBUPropertyInfo@2@HPAVValue@2@1@Z
	?OnPropertyChanged@CCCommandLink@DirectUI@@UAEXPBUPropertyInfo@2@HPAVValue@2@1@Z
	?OnPropertyChanged@CCPushButton@DirectUI@@UAEXPBUPropertyInfo@2@HPAVValue@2@1@Z
	?OnPropertyChanged@CCTrackBar@DirectUI@@UAEXPBUPropertyInfo@2@HPAVValue@2@1@Z
	?OnPropertyChanged@Combobox@DirectUI@@UAEXPBUPropertyInfo@2@HPAVValue@2@1@Z
	?OnPropertyChanged@DialogElement@DirectUI@@UAEXPBUPropertyInfo@2@HPAVValue@2@1@Z
	?OnPropertyChanged@Edit@DirectUI@@UAEXPBUPropertyInfo@2@HPAVValue@2@1@Z
	?OnPropertyChanged@Element@DirectUI@@UAEXPAUPropertyInfo@2@HPAVValue@2@1@Z
	?OnPropertyChanged@Element@DirectUI@@UAEXPBUPropertyInfo@2@HPAVValue@2@1@Z
	?OnPropertyChanged@Expando@DirectUI@@UAEXPBUPropertyInfo@2@HPAVValue@2@1@Z
	?OnPropertyChanged@HWNDElement@DirectUI@@UAEXPBUPropertyInfo@2@HPAVValue@2@1@Z
	?OnPropertyChanged@HWNDHost@DirectUI@@UAEXPBUPropertyInfo@2@HPAVValue@2@1@Z
	?OnPropertyChanged@Macro@DirectUI@@UAEXPBUPropertyInfo@2@HPAVValue@2@1@Z
	?OnPropertyChanged@RefPointElement@DirectUI@@UAEXPBUPropertyInfo@2@HPAVValue@2@1@Z
	?OnPropertyChanged@ScrollBar@DirectUI@@UAEXPBUPropertyInfo@2@HPAVValue@2@1@Z
	?OnPropertyChanged@ScrollViewer@DirectUI@@UAEXPBUPropertyInfo@2@HPAVValue@2@1@Z
	?OnPropertyChanged@Selector@DirectUI@@UAEXPBUPropertyInfo@2@HPAVValue@2@1@Z
	?OnPropertyChanged@TextGraphic@DirectUI@@UAEXPBUPropertyInfo@2@HPAVValue@2@1@Z
	?OnPropertyChanged@Viewer@DirectUI@@UAEXPBUPropertyInfo@2@HPAVValue@2@1@Z
	?OnPropertyChanging@BaseScrollViewer@DirectUI@@UAE_NPBUPropertyInfo@2@HPAVValue@2@1@Z
	?OnPropertyChanging@CCBaseScrollBar@DirectUI@@UAE_NPBUPropertyInfo@2@HPAVValue@2@1@Z
	?OnPropertyChanging@CCTrackBar@DirectUI@@UAE_NPBUPropertyInfo@2@HPAVValue@2@1@Z
	?OnPropertyChanging@Element@DirectUI@@UAE_NPAUPropertyInfo@2@HPAVValue@2@1@Z
	?OnPropertyChanging@Element@DirectUI@@UAE_NPBUPropertyInfo@2@HPAVValue@2@1@Z
	?OnPropertyChanging@PText@DirectUI@@UAE_NPBUPropertyInfo@2@HPAVValue@2@1@Z
	?OnPropertyChanging@ScrollBar@DirectUI@@UAE_NPBUPropertyInfo@2@HPAVValue@2@1@Z
	?OnPropertyChanging@TextGraphic@DirectUI@@UAE_NPBUPropertyInfo@2@HPAVValue@2@1@Z
	?OnPropertyChanging@Viewer@DirectUI@@UAE_NPBUPropertyInfo@2@HPAVValue@2@1@Z
	?OnQueryCancel@TaskPage@DirectUI@@MAEJXZ
	?OnQueryInitialFocus@TaskPage@DirectUI@@MAEPAVElement@2@XZ
	?OnReceivedDialogFocus@Button@DirectUI@@UAE_NPAVDialogElement@2@@Z
	?OnReceivedDialogFocus@CCBase@DirectUI@@UAE_NPAVDialogElement@2@@Z
	?OnReceivedDialogFocus@CCBaseCheckRadioButton@DirectUI@@UAE_NPAVDialogElement@2@@Z
	?OnReceivedDialogFocus@CCPushButton@DirectUI@@UAE_NPAVDialogElement@2@@Z
	?OnReceivedDialogFocus@CCSysLink@DirectUI@@UAE_NPAVDialogElement@2@@Z
	?OnReceivedDialogFocus@CheckBoxGlyph@DirectUI@@UAE_NPAVDialogElement@2@@Z
	?OnReceivedDialogFocus@ExpandoButtonGlyph@DirectUI@@UAE_NPAVDialogElement@2@@Z
	?OnReceivedDialogFocus@RadioButtonGlyph@DirectUI@@UAE_NPAVDialogElement@2@@Z
	?OnRemove@BorderLayout@DirectUI@@UAEXPAVElement@2@PAPAV32@I@Z
	?OnRemove@Layout@DirectUI@@UAEXPAVElement@2@PAPAV32@I@Z
	?OnRemove@NineGridLayout@DirectUI@@UAEXPAVElement@2@PAPAV32@I@Z
	?OnRemove@ShellBorderLayout@DirectUI@@UAEXPAVElement@2@PAPAV32@I@Z
	?OnReset@TaskPage@DirectUI@@MAEJXZ
	?OnSelectedPropertyChanged@CCCommandLink@DirectUI@@UAEXXZ
	?OnSelectedPropertyChanged@CCPushButton@DirectUI@@UAEXXZ
	?OnSetActive@TaskPage@DirectUI@@MAEJXZ
	?OnSinkThemeChanged@HWNDHost@DirectUI@@UAE_NIIJPAJ@Z
	?OnSinkThemeChanged@XElement@DirectUI@@UAE_NIIJPAJ@Z
	?OnSysChar@HWNDHost@DirectUI@@UAE_NG@Z
	?OnSysChar@XElement@DirectUI@@UAE_NG@Z
	?OnThemeChanged@HWNDElement@DirectUI@@UAEXPAUThemeChangedEvent@2@@Z
	?OnThemeChanged@XBaby@DirectUI@@UAEXPAUThemeChangedEvent@2@@Z
	?OnToolTip@EventManager@DirectUI@@SGJPAVElement@2@K@Z
	?OnUnHosted@Element@DirectUI@@MAEXPAV12@@Z
	?OnUnHosted@HWNDHost@DirectUI@@MAEXPAVElement@2@@Z
	?OnUnHosted@PushButton@DirectUI@@UAEXPAVElement@2@@Z
	?OnWindowStyleChanged@HWNDHost@DirectUI@@UAEXIPBUtagSTYLESTRUCT@@@Z
	?OnWizBack@TaskPage@DirectUI@@MAEJXZ
	?OnWizFinish@TaskPage@DirectUI@@MAEJXZ
	?OnWizNext@TaskPage@DirectUI@@MAEJXZ
	?OnWmThemeChanged@HWNDElement@DirectUI@@UAEXIJ@Z
	?OnWmThemeChanged@XBaby@DirectUI@@UAEXIJ@Z
	?OnWndMsg@TaskPage@DirectUI@@AAEHIIJPAJ@Z
	?OpenAnimation@CCAVI@DirectUI@@AAEXPAUHWND__@@@Z
	?OptimizeMoveProp@HWNDHost@DirectUI@@SGPBUPropertyInfo@2@XZ
	?OrderProp@ScrollBar@DirectUI@@SGPBUPropertyInfo@2@XZ
	?Orientation@Schema@DirectUI@@2HA
	?OverhangProp@Element@DirectUI@@SGPBUPropertyInfo@2@XZ
	?OverrideButtonBackgroundProp@CCPushButton@DirectUI@@SGPBUPropertyInfo@2@XZ
	?PaddingProp@Element@DirectUI@@SGPBUPropertyInfo@2@XZ
	?PageDown@BaseScrollBar@DirectUI@@UAEXI@Z
	?PageProp@CCBaseScrollBar@DirectUI@@SGPBUPropertyInfo@2@XZ
	?PageProp@ScrollBar@DirectUI@@SGPBUPropertyInfo@2@XZ
	?PageUp@BaseScrollBar@DirectUI@@UAEXI@Z
	?Paint@AnimationStrip@DirectUI@@MAEXPAUHDC__@@PBUtagRECT@@1PAU4@2@Z
	?Paint@Element@DirectUI@@UAEXPAUHDC__@@PBUtagRECT@@1PAU4@2@Z
	?Paint@HWNDHost@DirectUI@@UAEXPAUHDC__@@PBUtagRECT@@1PAU4@2@Z
	?Paint@Movie@DirectUI@@UAEXPAUHDC__@@PBUtagRECT@@1PAU4@2@Z
	?Paint@Progress@DirectUI@@UAEXPAUHDC__@@PBUtagRECT@@1PAU4@2@Z
	?PaintBackground@Element@DirectUI@@QAEXPAUHDC__@@PAVValue@2@ABUtagRECT@@222@Z
	?PaintBorder@Element@DirectUI@@QAEXPAUHDC__@@PAVValue@2@PAUtagRECT@@ABU5@@Z
	?PaintContent@Element@DirectUI@@QAEXPAUHDC__@@PBUtagRECT@@@Z
	?PaintFocusRect@Element@DirectUI@@QAEXPAUHDC__@@PBUtagRECT@@1@Z
	?PaintStringContent@Element@DirectUI@@QAEXPAUHDC__@@PBUtagRECT@@PAVValue@2@H@Z
	?PaneControlType@Schema@DirectUI@@2HA
	?ParentProp@Element@DirectUI@@SGPBUPropertyInfo@2@XZ
	?ParseARGBColor@DUIXmlParser@DirectUI@@IAEJPBUExprNode@ParserTools@2@PAK@Z
	?ParseArgs@DUIXmlParser@DirectUI@@IAEJPBUExprNode@ParserTools@2@PATParsedArg@12@IPBD@Z
	?ParseAtomValue@DUIXmlParser@DirectUI@@IAEJPBUExprNode@ParserTools@2@PAPAVValue@2@@Z
	?ParseBoolValue@DUIXmlParser@DirectUI@@IAEJPBUExprNode@ParserTools@2@PAPAVValue@2@@Z
	?ParseColor@DUIXmlParser@DirectUI@@IAEJPBUExprNode@ParserTools@2@PAK@Z
	?ParseDFCFill@DUIXmlParser@DirectUI@@IAEJPBUExprNode@ParserTools@2@PAPAVValue@2@@Z
	?ParseDTBFill@DUIXmlParser@DirectUI@@IAEJPBUExprNode@ParserTools@2@PAPAVValue@2@@Z
	?ParseFillValue@DUIXmlParser@DirectUI@@IAEJPBUExprNode@ParserTools@2@PAPAVValue@2@@Z
	?ParseFunction@DUIXmlParser@DirectUI@@IAEJPBGPBUExprNode@ParserTools@2@PATParsedArg@12@IPBD@Z
	?ParseGTCColor@DUIXmlParser@DirectUI@@IAEJPBUExprNode@ParserTools@2@PAK@Z
	?ParseGTFStr@DUIXmlParser@DirectUI@@IAEJPBUExprNode@ParserTools@2@PAPAVValue@2@@Z
	?ParseGTMarRect@DUIXmlParser@DirectUI@@IAEJPBUExprNode@ParserTools@2@PAUtagRECT@@@Z
	?ParseGTMetInt@DUIXmlParser@DirectUI@@IAEJPBUExprNode@ParserTools@2@PAH@Z
	?ParseGradientFill@DUIXmlParser@DirectUI@@IAEJPBUExprNode@ParserTools@2@PAPAVValue@2@@Z
	?ParseGraphicGraphic@DUIXmlParser@DirectUI@@IAEJPBUExprNode@ParserTools@2@PAPAVValue@2@@Z
	?ParseGraphicHelper@DUIXmlParser@DirectUI@@IAEJ_NPBUExprNode@ParserTools@2@PAPAVValue@2@@Z
	?ParseGraphicValue@DUIXmlParser@DirectUI@@IAEJPBUExprNode@ParserTools@2@PAPAVValue@2@@Z
	?ParseIconGraphic@DUIXmlParser@DirectUI@@IAEJPBUExprNode@ParserTools@2@PAPAVValue@2@@Z
	?ParseImageGraphic@DUIXmlParser@DirectUI@@IAEJPBUExprNode@ParserTools@2@PAPAVValue@2@@Z
	?ParseIntValue@DUIXmlParser@DirectUI@@IAEJPBUExprNode@ParserTools@2@PAPAVValue@2@@Z
	?ParseLayoutValue@DUIXmlParser@DirectUI@@IAEJPBUExprNode@ParserTools@2@@Z
	?ParseLibrary@DUIXmlParser@DirectUI@@IAEJPBUExprNode@ParserTools@2@PAPAUHINSTANCE__@@@Z
	?ParseLiteral@DUIXmlParser@DirectUI@@IAEJPBUExprNode@ParserTools@2@PAPBG@Z
	?ParseLiteralColor@DUIXmlParser@DirectUI@@IAEJPBGPAK@Z
	?ParseLiteralColorInt@DUIXmlParser@DirectUI@@IAEJPBGPAH@Z
	?ParseLiteralNumber@DUIXmlParser@DirectUI@@IAEJPBGPAH@Z
	?ParseMagnitude@DUIXmlParser@DirectUI@@IAEJPBGPAH@Z
	?ParseNumber@DUIXmlParser@DirectUI@@IAEJPBUExprNode@ParserTools@2@PAH@Z
	?ParsePointValue@DUIXmlParser@DirectUI@@IAEJPBUExprNode@ParserTools@2@PAPAVValue@2@@Z
	?ParseQuotedString@DUIXmlParser@DirectUI@@IAEJPBUExprNode@ParserTools@2@PAPBG@Z
	?ParseRGBColor@DUIXmlParser@DirectUI@@IAEJPBUExprNode@ParserTools@2@PAK@Z
	?ParseRect@DUIXmlParser@DirectUI@@IAEJPBUExprNode@ParserTools@2@PAUtagRECT@@@Z
	?ParseRectRect@DUIXmlParser@DirectUI@@IAEJPBUExprNode@ParserTools@2@PAUtagRECT@@@Z
	?ParseRectValue@DUIXmlParser@DirectUI@@IAEJPBUExprNode@ParserTools@2@PAPAVValue@2@@Z
	?ParseResStr@DUIXmlParser@DirectUI@@IAEJPBUExprNode@ParserTools@2@PAPAVValue@2@@Z
	?ParseResid@DUIXmlParser@DirectUI@@IAEJPBUExprNode@ParserTools@2@PAPBG@Z
	?ParseSGraphicGraphic@DUIXmlParser@DirectUI@@IAEJPBUExprNode@ParserTools@2@PAPAVValue@2@@Z
	?ParseSGraphicHelper@DUIXmlParser@DirectUI@@IAEJ_NPBUExprNode@ParserTools@2@PAPAVValue@2@@Z
	?ParseSizeValue@DUIXmlParser@DirectUI@@IAEJPBUExprNode@ParserTools@2@PAPAVValue@2@@Z
	?ParseStringValue@DUIXmlParser@DirectUI@@IAEJPBUExprNode@ParserTools@2@PAPAVValue@2@@Z
	?ParseStyleSheets@DUIXmlParser@DirectUI@@IAEJPAUIXmlReader@@@Z
	?ParseSysMetricInt@DUIXmlParser@DirectUI@@IAEJPBUExprNode@ParserTools@2@PAH@Z
	?ParseSysMetricStr@DUIXmlParser@DirectUI@@IAEJPBUExprNode@ParserTools@2@PAPAVValue@2@@Z
	?ParseTheme@DUIXmlParser@DirectUI@@IAEJPBUExprNode@ParserTools@2@PAPAX@Z
	?PasswordCharacterProp@Edit@DirectUI@@SGPBUPropertyInfo@2@XZ
	?PathProp@Movie@DirectUI@@SGPBUPropertyInfo@2@XZ
	?PatternFromPatternId@Schema@DirectUI@@SG?AW4Pattern@12@H@Z
	?Pause@Movie@DirectUI@@QAEXXZ
	?PfnIsSupportedFromPattern@Schema@DirectUI@@SGP6G_NPAVElement@2@@ZW4Pattern@12@@Z
	?PinningProp@BaseScrollViewer@DirectUI@@SGPBUPropertyInfo@2@XZ
	?PixelOffsetModeProp@Movie@DirectUI@@SGPBUPropertyInfo@2@XZ
	?Play@CCAVI@DirectUI@@QAEXPAUHWND__@@@Z
	?Play@Movie@DirectUI@@QAEXXZ
	?PlayAllFramesModeProp@Movie@DirectUI@@SGPBUPropertyInfo@2@XZ
	?PlayProp@AnimationStrip@DirectUI@@SGPBUPropertyInfo@2@XZ
	?PosInLayoutProp@Element@DirectUI@@SGPBUPropertyInfo@2@XZ
	?PositionProp@CCBaseScrollBar@DirectUI@@SGPBUPropertyInfo@2@XZ
	?PositionProp@Progress@DirectUI@@SGPBUPropertyInfo@2@XZ
	?PositionProp@ScrollBar@DirectUI@@SGPBUPropertyInfo@2@XZ
	?PostCreate@CCAVI@DirectUI@@MAEXPAUHWND__@@@Z
	?PostCreate@CCBase@DirectUI@@MAEXPAUHWND__@@@Z
	?PostCreate@CCBaseCheckRadioButton@DirectUI@@MAEXPAUHWND__@@@Z
	?PostCreate@CCCommandLink@DirectUI@@MAEXPAUHWND__@@@Z
	?PostCreate@CCTrackBar@DirectUI@@MAEXPAUHWND__@@@Z
	?PostEvent@Element@DirectUI@@QAEXPAUEvent@2@@Z
	?PressedProp@Button@DirectUI@@SGPBUPropertyInfo@2@XZ
	?PrintRTLControl@HWNDHost@DirectUI@@IAEXPAUHDC__@@0ABUtagRECT@@@Z
	?ProcessIdProperty@Schema@DirectUI@@2HA
	?ProgressBarControlType@Schema@DirectUI@@2HA
	?PropSheet_SendMessage@TaskPage@DirectUI@@IAEJIIJ@Z
	?PropertyChangedCore@Edit@DirectUI@@AAEXPBUPropertyInfo@2@HPAVValue@2@PAUHWND__@@@Z
	?PropertyChangingListener@EventManager@DirectUI@@SGJPAVElement@2@PBUPropertyInfo@2@PA_N@Z
	?PropertyListener@EventManager@DirectUI@@SGJPAVElement@2@PBUPropertyInfo@2@HPAVValue@2@2@Z
	?PropertyProp@Bind@DirectUI@@SGPBUPropertyInfo@2@XZ
	?ProportionalProp@ScrollBar@DirectUI@@SGPBUPropertyInfo@2@XZ
	?QueryInterface@DuiAccessible@DirectUI@@UAGJABU_GUID@@PAPAX@Z
	?QueryInterface@Element@DirectUI@@UAGJABU_GUID@@PAPAX@Z
	?QueryInterface@ElementProvider@DirectUI@@UAGJABU_GUID@@PAPAX@Z
	?QueryInterface@ExpandCollapseProvider@DirectUI@@UAGJABU_GUID@@PAPAX@Z
	?QueryInterface@GridItemProvider@DirectUI@@UAGJABU_GUID@@PAPAX@Z
	?QueryInterface@GridProvider@DirectUI@@UAGJABU_GUID@@PAPAX@Z
	?QueryInterface@HWNDElementProvider@DirectUI@@UAGJABU_GUID@@PAPAX@Z
	?QueryInterface@HWNDHostAccessible@DirectUI@@UAGJABU_GUID@@PAPAX@Z
	?QueryInterface@InvokeProvider@DirectUI@@UAGJABU_GUID@@PAPAX@Z
	?QueryInterface@RangeValueProvider@DirectUI@@UAGJABU_GUID@@PAPAX@Z
	?QueryInterface@ScrollItemProvider@DirectUI@@UAGJABU_GUID@@PAPAX@Z
	?QueryInterface@ScrollProvider@DirectUI@@UAGJABU_GUID@@PAPAX@Z
	?QueryInterface@SelectionItemProvider@DirectUI@@UAGJABU_GUID@@PAPAX@Z
	?QueryInterface@SelectionProvider@DirectUI@@UAGJABU_GUID@@PAPAX@Z
	?QueryInterface@TableItemProvider@DirectUI@@UAGJABU_GUID@@PAPAX@Z
	?QueryInterface@TableProvider@DirectUI@@UAGJABU_GUID@@PAPAX@Z
	?QueryInterface@ToggleProvider@DirectUI@@UAGJABU_GUID@@PAPAX@Z
	?QueryInterface@ValueProvider@DirectUI@@UAGJABU_GUID@@PAPAX@Z
	?QueryInterface@XProvider@DirectUI@@UAGJABU_GUID@@PAPAX@Z
	?QueryService@DuiAccessible@DirectUI@@UAGJABU_GUID@@0PAPAX@Z
	?QueryService@HWNDHostAccessible@DirectUI@@UAGJABU_GUID@@0PAPAX@Z
	?QuerySysMetric@DUIXmlParser@DirectUI@@KGHH@Z
	?QuerySysMetricStr@DUIXmlParser@DirectUI@@KGPBGHPAGI@Z
	?QueueDefaultAction@Element@DirectUI@@QAEJXZ
	?RadioButtonControlType@Schema@DirectUI@@2HA
	?RaiseChildRemovedEvent@EventManager@DirectUI@@CGJABUElementRuntimeId@2@PAVElement@2@@Z
	?RaiseGeometryEventWorker@EventManager@DirectUI@@CGJPAURectangleChange@2@_N111@Z
	?RaiseGeometryEvents@EventManager@DirectUI@@CGJXZ
	?RaiseStructureChangedEvent@EventManager@DirectUI@@CGJPAVElement@2@W4StructureChangeType@@@Z
	?RaiseStructureEvents@EventManager@DirectUI@@CGJXZ
	?RaiseVisibilityEvents@EventManager@DirectUI@@CGJXZ
	?RangeMaxProp@CCTrackBar@DirectUI@@SGPBUPropertyInfo@2@XZ
	?RangeMinProp@CCTrackBar@DirectUI@@SGPBUPropertyInfo@2@XZ
	?RangeValuePattern@Schema@DirectUI@@2HA
	?RangeValue_IsReadOnly_Property@Schema@DirectUI@@2HA
	?RangeValue_LargeChange_Property@Schema@DirectUI@@2HA
	?RangeValue_Maximum_Property@Schema@DirectUI@@2HA
	?RangeValue_Minimum_Property@Schema@DirectUI@@2HA
	?RangeValue_SmallChange_Property@Schema@DirectUI@@2HA
	?RangeValue_Value_Property@Schema@DirectUI@@2HA
	?RawActionProc@AnimationStrip@DirectUI@@KGXPAUGMA_ACTIONINFO@@@Z
	?RawActionProc@Movie@DirectUI@@SGXPAUGMA_ACTIONINFO@@@Z
	?Recalc@AccessibleButton@DirectUI@@QAEXXZ
	?ReferencePointProp@RefPointElement@DirectUI@@SGPBUPropertyInfo@2@XZ
	?Register@AccessibleButton@DirectUI@@SGJXZ
	?Register@AnimationStrip@DirectUI@@SGJXZ
	?Register@AutoButton@DirectUI@@SGJXZ
	?Register@BaseScrollViewer@DirectUI@@SGJXZ
	?Register@Bind@DirectUI@@SGJXZ
	?Register@Browser@DirectUI@@SGJXZ
	?Register@Button@DirectUI@@SGJXZ
	?Register@CCAVI@DirectUI@@SGJXZ
	?Register@CCBase@DirectUI@@SGJXZ
	?Register@CCBaseCheckRadioButton@DirectUI@@SGJXZ
	?Register@CCBaseScrollBar@DirectUI@@SGJXZ
	?Register@CCCheckBox@DirectUI@@SGJXZ
	?Register@CCCommandLink@DirectUI@@SGJXZ
	?Register@CCHScrollBar@DirectUI@@SGJXZ
	?Register@CCListBox@DirectUI@@SGJXZ
	?Register@CCListView@DirectUI@@SGJXZ
	?Register@CCProgressBar@DirectUI@@SGJXZ
	?Register@CCPushButton@DirectUI@@SGJXZ
	?Register@CCRadioButton@DirectUI@@SGJXZ
	?Register@CCSysLink@DirectUI@@SGJXZ
	?Register@CCTrackBar@DirectUI@@SGJXZ
	?Register@CCTreeView@DirectUI@@SGJXZ
	?Register@CCVScrollBar@DirectUI@@SGJXZ
	?Register@CheckBoxGlyph@DirectUI@@SGJXZ
	?Register@ClassInfoBase@DirectUI@@QAEJXZ
	?Register@Clipper@DirectUI@@SGJXZ
	?Register@Combobox@DirectUI@@SGJXZ
	?Register@DialogElement@DirectUI@@SGJXZ
	?Register@Edit@DirectUI@@SGJXZ
	?Register@Element@DirectUI@@SGJXZ
	?Register@ElementWithHWND@DirectUI@@SGJXZ
	?Register@Expandable@DirectUI@@SGJXZ
	?Register@Expando@DirectUI@@SGJXZ
	?Register@ExpandoButtonGlyph@DirectUI@@SGJXZ
	?Register@HWNDElement@DirectUI@@SGJXZ
	?Register@HWNDHost@DirectUI@@SGJXZ
	?Register@Macro@DirectUI@@SGJXZ
	?Register@Movie@DirectUI@@SGJXZ
	?Register@Navigator@DirectUI@@SGJXZ
	?Register@PText@DirectUI@@SGJXZ
	?Register@Page@DirectUI@@SGJXZ
	?Register@Pages@DirectUI@@SGJXZ
	?Register@Progress@DirectUI@@SGJXZ
	?Register@PushButton@DirectUI@@SGJXZ
	?Register@RadioButtonGlyph@DirectUI@@SGJXZ
	?Register@RefPointElement@DirectUI@@SGJXZ
	?Register@RepeatButton@DirectUI@@SGJXZ
	?Register@Repeater@DirectUI@@SGJXZ
	?Register@ScrollBar@DirectUI@@SGJXZ
	?Register@ScrollViewer@DirectUI@@SGJXZ
	?Register@Selector@DirectUI@@SGJXZ
	?Register@SelectorNoDefault@DirectUI@@SGJXZ
	?Register@StyledScrollViewer@DirectUI@@SGJXZ
	?Register@TextGraphic@DirectUI@@SGJXZ
	?Register@Thumb@DirectUI@@SGJXZ
	?Register@UnknownElement@DirectUI@@SGJXZ
	?Register@Viewer@DirectUI@@SGJXZ
	?Register@XBaby@DirectUI@@SGJXZ
	?Register@XElement@DirectUI@@SGJXZ
	?RegisteredDefaultButtonProp@DialogElement@DirectUI@@SGPBUPropertyInfo@2@XZ
	?Release@ClassInfoBase@DirectUI@@UAEHXZ
	?Release@DuiAccessible@DirectUI@@UAGKXZ
	?Release@Element@DirectUI@@QAGKXZ
	?Release@ElementProvider@DirectUI@@UAGKXZ
	?Release@ExpandCollapseProvider@DirectUI@@UAGKXZ
	?Release@GridItemProvider@DirectUI@@UAGKXZ
	?Release@GridProvider@DirectUI@@UAGKXZ
	?Release@HWNDElementProvider@DirectUI@@UAGKXZ
	?Release@InvokeProvider@DirectUI@@UAGKXZ
	?Release@RangeValueProvider@DirectUI@@UAGKXZ
	?Release@RefcountBase@DirectUI@@QAEJXZ
	?Release@ScrollItemProvider@DirectUI@@UAGKXZ
	?Release@ScrollProvider@DirectUI@@UAGKXZ
	?Release@SelectionItemProvider@DirectUI@@UAGKXZ
	?Release@SelectionProvider@DirectUI@@UAGKXZ
	?Release@TableItemProvider@DirectUI@@UAGKXZ
	?Release@TableProvider@DirectUI@@UAGKXZ
	?Release@ToggleProvider@DirectUI@@UAGKXZ
	?Release@Value@DirectUI@@QAEXXZ
	?Release@ValueProvider@DirectUI@@UAGKXZ
	?Release@XProvider@DirectUI@@UAGKXZ
	?Remove@Element@DirectUI@@QAEJPAV12@@Z
	?Remove@Element@DirectUI@@UAEJPAPAV12@I@Z
	?Remove@ElementProviderManager@DirectUI@@SGXPAVElementProvider@2@@Z
	?Remove@LinkedList@DirectUI@@QAEXPAVLinkedListNode@2@@Z
	?RemoveAll@Element@DirectUI@@QAEJXZ
	?RemoveChild@ClassInfoBase@DirectUI@@UAEXXZ
	?RemoveFromSelection@SelectionItemProvider@DirectUI@@UAGJXZ
	?RemoveListener@Element@DirectUI@@QAEXPAUIElementListener@2@@Z
	?RemoveLocalValue@Element@DirectUI@@QAEJP6GPBUPropertyInfo@2@XZ@Z
	?RemoveLocalValue@Element@DirectUI@@QAEJPBUPropertyInfo@2@@Z
	?RemoveShortcutFromName@Element@DirectUI@@AAEPAGPBG@Z
	?RemoveTail@LinkedList@DirectUI@@QAEPAVLinkedListNode@2@XZ
	?RemoveTooltip@Element@DirectUI@@MAEXPAV12@@Z
	?RemoveTooltip@HWNDElement@DirectUI@@UAEXPAVElement@2@@Z
	?RepeatProp@Movie@DirectUI@@SGPBUPropertyInfo@2@XZ
	?Reset@DuiAccessible@DirectUI@@UAGJXZ
	?Reset@HWNDHostAccessible@DirectUI@@UAGJXZ
	?ResolveBindings@Macro@DirectUI@@IAEXXZ
	?RestoreFocus@NativeHWNDHost@DirectUI@@QAEHXZ
	?Resume@Movie@DirectUI@@QAEXXZ
	?ReturnValueParser@DUIXmlParser@DirectUI@@IAEXPAVValueParser@ParserTools@2@@Z
	?Rewind@Movie@DirectUI@@QAEXXZ
	?RuntimeIdProperty@Schema@DirectUI@@2HA
	?STACKDEPTH@CallstackTracker@DirectUI@@0HB
	?SaveFocus@NativeHWNDHost@DirectUI@@QAEXXZ
	?Scroll@BaseScrollBar@DirectUI@@SG?AVUID@@XZ
	?Scroll@ScrollProvider@DirectUI@@UAGJW4ScrollAmount@@0@Z
	?Scroll@ScrollProxy@DirectUI@@AAEJW4ScrollAmount@@0@Z
	?ScrollBarControlType@Schema@DirectUI@@2HA
	?ScrollIntoView@ScrollItemProvider@DirectUI@@UAGJXZ
	?ScrollItemPattern@Schema@DirectUI@@2HA
	?ScrollLine@ScrollProxy@DirectUI@@AAEJ_N0@Z
	?ScrollPage@ScrollProxy@DirectUI@@AAEJ_N0@Z
	?ScrollPattern@Schema@DirectUI@@2HA
	?ScrollToHorizontalPosition@ScrollProxy@DirectUI@@AAEJH_N@Z
	?ScrollToVerticalPosition@ScrollProxy@DirectUI@@AAEJH_N@Z
	?Scroll_HorizontalScrollPercent_Property@Schema@DirectUI@@2HA
	?Scroll_HorizontalViewSize_Property@Schema@DirectUI@@2HA
	?Scroll_HorizontallyScrollable_Property@Schema@DirectUI@@2HA
	?Scroll_VerticalScrollPercent_Property@Schema@DirectUI@@2HA
	?Scroll_VerticalViewSize_Property@Schema@DirectUI@@2HA
	?Scroll_VerticallyScrollable_Property@Schema@DirectUI@@2HA
	?Select@SelectionItemProvider@DirectUI@@UAGJXZ
	?Select@SelectorSelectionItemProxy@DirectUI@@AAEJXZ
	?SelectedProp@Element@DirectUI@@SGPBUPropertyInfo@2@XZ
	?SelectionChange@Combobox@DirectUI@@SG?AVUID@@XZ
	?SelectionChange@Selector@DirectUI@@SG?AVUID@@XZ
	?SelectionInvalidatedEvent@Schema@DirectUI@@2HA
	?SelectionItemElementAddedToSelectionEvent@Schema@DirectUI@@2HA
	?SelectionItemElementRemovedFromSelectionEvent@Schema@DirectUI@@2HA
	?SelectionItemElementSelectedEvent@Schema@DirectUI@@2HA
	?SelectionItemPattern@Schema@DirectUI@@2HA
	?SelectionItem_IsSelected_Property@Schema@DirectUI@@2HA
	?SelectionItem_SelectionContainer_Property@Schema@DirectUI@@2HA
	?SelectionPattern@Schema@DirectUI@@2HA
	?SelectionProp@Combobox@DirectUI@@SGPBUPropertyInfo@2@XZ
	?SelectionProp@Selector@DirectUI@@SGPBUPropertyInfo@2@XZ
	?Selection_CanSelectMultiple_Property@Schema@DirectUI@@2HA
	?Selection_IsSelectionRequired_Property@Schema@DirectUI@@2HA
	?Selection_Selection_Property@Schema@DirectUI@@2HA
	?SendParseError@DUIXmlParser@DirectUI@@IAEXPBG0HHJ@Z
	?SendParseError@DUIXmlParser@DirectUI@@IAEXPBG0PAUIXmlReader@@J@Z
	?SeparatorControlType@Schema@DirectUI@@2HA
	?SetAbsorbsShortcut@Element@DirectUI@@QAEJ_N@Z
	?SetAccDefAction@Element@DirectUI@@QAEJPBG@Z
	?SetAccDesc@Element@DirectUI@@QAEJPBG@Z
	?SetAccHelp@Element@DirectUI@@QAEJPBG@Z
	?SetAccItemStatus@Element@DirectUI@@QAEJPBG@Z
	?SetAccItemType@Element@DirectUI@@QAEJPBG@Z
	?SetAccName@Element@DirectUI@@QAEJPBG@Z
	?SetAccRole@Element@DirectUI@@QAEJH@Z
	?SetAccState@Element@DirectUI@@QAEJH@Z
	?SetAccValue@Element@DirectUI@@QAEJPBG@Z
	?SetAccessible@Element@DirectUI@@QAEJ_N@Z
	?SetActive@Element@DirectUI@@QAEJH@Z
	?SetAlpha@Element@DirectUI@@QAEJH@Z
	?SetAnimation@Element@DirectUI@@QAEJH@Z
	?SetAutoGrouping@CCRadioButton@DirectUI@@QAEJ_N@Z
	?SetAutoStart@Movie@DirectUI@@QAEJ_N@Z
	?SetAutoStop@Movie@DirectUI@@QAEJ_N@Z
	?SetBackgroundColor@Element@DirectUI@@QAEJABUFill@2@@Z
	?SetBackgroundColor@Element@DirectUI@@QAEJK@Z
	?SetBackgroundColor@Element@DirectUI@@QAEJKKE@Z
	?SetBackgroundColor@Element@DirectUI@@QAEJKKKE@Z
	?SetBackgroundColor@Element@DirectUI@@QAEJPBGHH@Z
	?SetBackgroundOwnerID@HWNDHost@DirectUI@@QAEJPBG@Z
	?SetBackgroundStdColor@Element@DirectUI@@QAEJH@Z
	?SetBorderColor@Element@DirectUI@@QAEJK@Z
	?SetBorderGradientColor@Element@DirectUI@@QAEJKKE@Z
	?SetBorderStdColor@Element@DirectUI@@QAEJH@Z
	?SetBorderStyle@Element@DirectUI@@QAEJH@Z
	?SetBorderThickness@Element@DirectUI@@QAEJHHHH@Z
	?SetButtonClassAcceptsEnterKey@DialogElement@DirectUI@@QAEJ_N@Z
	?SetButtonClassAcceptsEnterKey@XProvider@DirectUI@@UAGJ_N@Z
	?SetCacheDirty@Layout@DirectUI@@IAEXXZ
	?SetCaptured@Button@DirectUI@@QAEJ_N@Z
	?SetClass@Element@DirectUI@@QAEJPBG@Z
	?SetClassInfoPtr@AccessibleButton@DirectUI@@SGXPAUIClassInfo@2@@Z
	?SetClassInfoPtr@AnimationStrip@DirectUI@@SGXPAUIClassInfo@2@@Z
	?SetClassInfoPtr@AutoButton@DirectUI@@SGXPAUIClassInfo@2@@Z
	?SetClassInfoPtr@BaseScrollViewer@DirectUI@@SGXPAUIClassInfo@2@@Z
	?SetClassInfoPtr@Bind@DirectUI@@SGXPAUIClassInfo@2@@Z
	?SetClassInfoPtr@Browser@DirectUI@@SGXPAUIClassInfo@2@@Z
	?SetClassInfoPtr@Button@DirectUI@@SGXPAUIClassInfo@2@@Z
	?SetClassInfoPtr@CCAVI@DirectUI@@SGXPAUIClassInfo@2@@Z
	?SetClassInfoPtr@CCBase@DirectUI@@SGXPAUIClassInfo@2@@Z
	?SetClassInfoPtr@CCBaseCheckRadioButton@DirectUI@@SGXPAUIClassInfo@2@@Z
	?SetClassInfoPtr@CCBaseScrollBar@DirectUI@@SGXPAUIClassInfo@2@@Z
	?SetClassInfoPtr@CCCheckBox@DirectUI@@SGXPAUIClassInfo@2@@Z
	?SetClassInfoPtr@CCCommandLink@DirectUI@@SGXPAUIClassInfo@2@@Z
	?SetClassInfoPtr@CCHScrollBar@DirectUI@@SGXPAUIClassInfo@2@@Z
	?SetClassInfoPtr@CCListBox@DirectUI@@SGXPAUIClassInfo@2@@Z
	?SetClassInfoPtr@CCListView@DirectUI@@SGXPAUIClassInfo@2@@Z
	?SetClassInfoPtr@CCProgressBar@DirectUI@@SGXPAUIClassInfo@2@@Z
	?SetClassInfoPtr@CCPushButton@DirectUI@@SGXPAUIClassInfo@2@@Z
	?SetClassInfoPtr@CCRadioButton@DirectUI@@SGXPAUIClassInfo@2@@Z
	?SetClassInfoPtr@CCSysLink@DirectUI@@SGXPAUIClassInfo@2@@Z
	?SetClassInfoPtr@CCTrackBar@DirectUI@@SGXPAUIClassInfo@2@@Z
	?SetClassInfoPtr@CCTreeView@DirectUI@@SGXPAUIClassInfo@2@@Z
	?SetClassInfoPtr@CCVScrollBar@DirectUI@@SGXPAUIClassInfo@2@@Z
	?SetClassInfoPtr@CheckBoxGlyph@DirectUI@@SGXPAUIClassInfo@2@@Z
	?SetClassInfoPtr@Clipper@DirectUI@@SGXPAUIClassInfo@2@@Z
	?SetClassInfoPtr@Combobox@DirectUI@@SGXPAUIClassInfo@2@@Z
	?SetClassInfoPtr@DialogElement@DirectUI@@SGXPAUIClassInfo@2@@Z
	?SetClassInfoPtr@Edit@DirectUI@@SGXPAUIClassInfo@2@@Z
	?SetClassInfoPtr@Element@DirectUI@@SGXPAUIClassInfo@2@@Z
	?SetClassInfoPtr@ElementWithHWND@DirectUI@@SGXPAUIClassInfo@2@@Z
	?SetClassInfoPtr@Expandable@DirectUI@@SGXPAUIClassInfo@2@@Z
	?SetClassInfoPtr@Expando@DirectUI@@SGXPAUIClassInfo@2@@Z
	?SetClassInfoPtr@ExpandoButtonGlyph@DirectUI@@SGXPAUIClassInfo@2@@Z
	?SetClassInfoPtr@HWNDElement@DirectUI@@SGXPAUIClassInfo@2@@Z
	?SetClassInfoPtr@HWNDHost@DirectUI@@SGXPAUIClassInfo@2@@Z
	?SetClassInfoPtr@Macro@DirectUI@@SGXPAUIClassInfo@2@@Z
	?SetClassInfoPtr@Movie@DirectUI@@SGXPAUIClassInfo@2@@Z
	?SetClassInfoPtr@Navigator@DirectUI@@SGXPAUIClassInfo@2@@Z
	?SetClassInfoPtr@PText@DirectUI@@SGXPAUIClassInfo@2@@Z
	?SetClassInfoPtr@Page@DirectUI@@SGXPAUIClassInfo@2@@Z
	?SetClassInfoPtr@Pages@DirectUI@@SGXPAUIClassInfo@2@@Z
	?SetClassInfoPtr@Progress@DirectUI@@SGXPAUIClassInfo@2@@Z
	?SetClassInfoPtr@PushButton@DirectUI@@SGXPAUIClassInfo@2@@Z
	?SetClassInfoPtr@RadioButtonGlyph@DirectUI@@SGXPAUIClassInfo@2@@Z
	?SetClassInfoPtr@RefPointElement@DirectUI@@SGXPAUIClassInfo@2@@Z
	?SetClassInfoPtr@RepeatButton@DirectUI@@SGXPAUIClassInfo@2@@Z
	?SetClassInfoPtr@Repeater@DirectUI@@SGXPAUIClassInfo@2@@Z
	?SetClassInfoPtr@ScrollBar@DirectUI@@SGXPAUIClassInfo@2@@Z
	?SetClassInfoPtr@ScrollViewer@DirectUI@@SGXPAUIClassInfo@2@@Z
	?SetClassInfoPtr@Selector@DirectUI@@SGXPAUIClassInfo@2@@Z
	?SetClassInfoPtr@SelectorNoDefault@DirectUI@@SGXPAUIClassInfo@2@@Z
	?SetClassInfoPtr@StyledScrollViewer@DirectUI@@SGXPAUIClassInfo@2@@Z
	?SetClassInfoPtr@TextGraphic@DirectUI@@SGXPAUIClassInfo@2@@Z
	?SetClassInfoPtr@Thumb@DirectUI@@SGXPAUIClassInfo@2@@Z
	?SetClassInfoPtr@UnknownElement@DirectUI@@SGXPAUIClassInfo@2@@Z
	?SetClassInfoPtr@Viewer@DirectUI@@SGXPAUIClassInfo@2@@Z
	?SetClassInfoPtr@XBaby@DirectUI@@SGXPAUIClassInfo@2@@Z
	?SetClassInfoPtr@XElement@DirectUI@@SGXPAUIClassInfo@2@@Z
	?SetClient@BorderLayout@DirectUI@@AAEXPAVElement@2@@Z
	?SetCompositedText@Element@DirectUI@@QAEJ_N@Z
	?SetCompositingQuality@Movie@DirectUI@@QAEJH@Z
	?SetConnect@Bind@DirectUI@@QAEJPBG@Z
	?SetContentAlign@Element@DirectUI@@QAEJH@Z
	?SetContentGraphic@Element@DirectUI@@QAEJPBGEI@Z
	?SetContentGraphic@Element@DirectUI@@QAEJPBGGG@Z
	?SetContentString@Element@DirectUI@@QAEJPBG@Z
	?SetCursor@Element@DirectUI@@QAEJPBG@Z
	?SetCursorHandle@Element@DirectUI@@QAEJPAUHICON__@@@Z
	?SetDataEngine@Repeater@DirectUI@@QAEXPAUIDataEngine@2@@Z
	?SetDataEntry@Macro@DirectUI@@QAEXPAUIDataEntry@2@PAVElement@2@@Z
	?SetDataEntry@PText@DirectUI@@QAEXPAUIDataEntry@2@@Z
	?SetDefaultButtonTracking@DialogElement@DirectUI@@QAEJ_N@Z
	?SetDefaultButtonTracking@XProvider@DirectUI@@UAGJ_N@Z
	?SetDefaultFocusID@NativeHWNDHost@DirectUI@@QAEXPBG@Z
	?SetDefaultHInstance@DUIXmlParser@DirectUI@@QAEXPAUHINSTANCE__@@@Z
	?SetDefaultState@CCPushButton@DirectUI@@IAEXKK@Z
	?SetDirection@Element@DirectUI@@QAEJH@Z
	?SetDirty@Edit@DirectUI@@QAEJ_N@Z
	?SetDrawOutlines@Movie@DirectUI@@QAEJ_N@Z
	?SetEnabled@Element@DirectUI@@QAEJ_N@Z
	?SetEncodedContentString@Element@DirectUI@@QAEJPBG@Z
	?SetEnforceSize@PushButton@DirectUI@@QAEJ_N@Z
	?SetError@DUIFactory@DirectUI@@QAAXPBGZZ
	?SetExpand@Macro@DirectUI@@QAEJPBG@Z
	?SetExpanded@Expandable@DirectUI@@QAEJ_N@Z
	?SetFocus@ElementProvider@DirectUI@@UAGJXZ
	?SetFocus@HWNDElement@DirectUI@@QAEX_N@Z
	?SetFocus@XProvider@DirectUI@@UAGJPAVElement@2@@Z
	?SetFont@Element@DirectUI@@QAEJPBG@Z
	?SetFontFace@Element@DirectUI@@QAEJPBG@Z
	?SetFontQuality@Element@DirectUI@@QAEJH@Z
	?SetFontSize@Element@DirectUI@@QAEJH@Z
	?SetFontStyle@Element@DirectUI@@QAEJH@Z
	?SetFontWeight@Element@DirectUI@@QAEJH@Z
	?SetForegroundColor@Element@DirectUI@@QAEJK@Z
	?SetForegroundColor@Element@DirectUI@@QAEJKKE@Z
	?SetForegroundColor@Element@DirectUI@@QAEJKKKE@Z
	?SetForegroundStdColor@Element@DirectUI@@QAEJH@Z
	?SetFrameDuration@AnimationStrip@DirectUI@@QAEJH@Z
	?SetFrameIndex@AnimationStrip@DirectUI@@QAEJH@Z
	?SetFrameWidth@AnimationStrip@DirectUI@@QAEJH@Z
	?SetGetSheetCallback@DUIXmlParser@DirectUI@@QAEXP6GPAVValue@2@PBGPAX@Z1@Z
	?SetHandleEnterKey@DialogElement@DirectUI@@QAEJ_N@Z
	?SetHandleEnterKey@XProvider@DirectUI@@IAEX_N@Z
	?SetHeight@Element@DirectUI@@QAEJH@Z
	?SetID@Element@DirectUI@@QAEJPBG@Z
	?SetInterpolationMode@Movie@DirectUI@@QAEJH@Z
	?SetItemState@CCTreeView@DirectUI@@QAEXPAU_TREEITEM@@I@Z
	?SetKeyFocus@Element@DirectUI@@UAEXXZ
	?SetKeyFocus@HWNDHost@DirectUI@@UAEXXZ
	?SetKeyFocus@XBaby@DirectUI@@UAEXXZ
	?SetKeyFocus@XElement@DirectUI@@UAEXXZ
	?SetLayout@Element@DirectUI@@QAEJPAVLayout@2@@Z
	?SetLayoutPos@Element@DirectUI@@QAEJH@Z
	?SetLine@CCBaseScrollBar@DirectUI@@UAEJH@Z
	?SetLine@ScrollBar@DirectUI@@UAEJH@Z
	?SetLineSize@CCTrackBar@DirectUI@@QAEJH@Z
	?SetMargin@Element@DirectUI@@QAEJHHHH@Z
	?SetMaxLength@Edit@DirectUI@@QAEJH@Z
	?SetMaximum@CCBaseScrollBar@DirectUI@@UAEJH@Z
	?SetMaximum@Progress@DirectUI@@QAEJH@Z
	?SetMaximum@ScrollBar@DirectUI@@UAEJH@Z
	?SetMinSize@Element@DirectUI@@QAEJHH@Z
	?SetMinimum@CCBaseScrollBar@DirectUI@@UAEJH@Z
	?SetMinimum@Progress@DirectUI@@QAEJH@Z
	?SetMinimum@ScrollBar@DirectUI@@UAEJH@Z
	?SetMultiline@Edit@DirectUI@@QAEJ_N@Z
	?SetNoBrowseOnFirstAdd@Pages@DirectUI@@QAEXXZ
	?SetNote@CCCommandLink@DirectUI@@QAEJPBG@Z
	?SetNotifyHandler@CCBase@DirectUI@@QAEXP6GHIIJPAJPAX@Z1@Z
	?SetOptimizeMove@HWNDHost@DirectUI@@QAEJ_N@Z
	?SetOrder@ScrollBar@DirectUI@@QAEJH@Z
	?SetOverhang@Element@DirectUI@@QAEJ_N@Z
	?SetOverrideButtonBackground@CCPushButton@DirectUI@@QAEJ_N@Z
	?SetPadding@Element@DirectUI@@QAEJHHHH@Z
	?SetPage@CCBaseScrollBar@DirectUI@@UAEJH@Z
	?SetPage@ScrollBar@DirectUI@@UAEJH@Z
	?SetParameter@XProvider@DirectUI@@UAGJABU_GUID@@PAX@Z
	?SetParentSizeControl@HWNDElement@DirectUI@@QAEX_N@Z
	?SetParseErrorCallback@DUIXmlParser@DirectUI@@QAEXP6GXPBG0HPAX@Z1@Z
	?SetParseState@DUIXmlParser@DirectUI@@AAEXW4_DUI_PARSE_STATE@2@@Z
	?SetParser@Macro@DirectUI@@QAEXPAVDUIXmlParser@2@@Z
	?SetPasswordCharacter@Edit@DirectUI@@QAEJH@Z
	?SetPath@Movie@DirectUI@@QAEJPBG@Z
	?SetPercent@ScrollProxy@DirectUI@@AAEJPAVBaseScrollBar@2@N@Z
	?SetPinned@BaseScrollBar@DirectUI@@QAEX_N@Z
	?SetPinning@BaseScrollViewer@DirectUI@@QAEJH@Z
	?SetPixelOffsetMode@Movie@DirectUI@@QAEJH@Z
	?SetPlay@AnimationStrip@DirectUI@@QAEJ_N@Z
	?SetPlayAllFramesMode@Movie@DirectUI@@QAEJ_N@Z
	?SetPosition@CCBaseScrollBar@DirectUI@@UAEJH@Z
	?SetPosition@Progress@DirectUI@@QAEJH@Z
	?SetPosition@ScrollBar@DirectUI@@UAEJH@Z
	?SetPreprocessedXML@DUIXmlParser@DirectUI@@QAEJPBGPAUHINSTANCE__@@1@Z
	?SetPressed@Button@DirectUI@@QAEJ_N@Z
	?SetProperty@Bind@DirectUI@@QAEJPBG@Z
	?SetProportional@ScrollBar@DirectUI@@QAEJ_N@Z
	?SetProvider@XElement@DirectUI@@QAEJPAUIUnknown@@@Z
	?SetRangeMax@CCTrackBar@DirectUI@@QAEJH@Z
	?SetRangeMin@CCTrackBar@DirectUI@@QAEJH@Z
	?SetReferencePoint@RefPointElement@DirectUI@@QAEJHH@Z
	?SetRegisteredDefaultButton@DialogElement@DirectUI@@QAEJPAVElement@2@@Z
	?SetRegisteredDefaultButton@XProvider@DirectUI@@UAGJPAVElement@2@@Z
	?SetRegisteredDefaultButtonSelectedState@DialogElement@DirectUI@@IAEX_N@Z
	?SetRepeat@Movie@DirectUI@@QAEJ_N@Z
	?SetScreenCenter@HWNDElement@DirectUI@@QAEX_N@Z
	?SetScrollPercent@ScrollProvider@DirectUI@@UAGJNN@Z
	?SetScrollPercent@ScrollProxy@DirectUI@@AAEJNN@Z
	?SetSelected@Element@DirectUI@@QAEJ_N@Z
	?SetSelection@Combobox@DirectUI@@QAEJH@Z
	?SetSelection@Selector@DirectUI@@UAEJPAVElement@2@@Z
	?SetSelection@SelectorNoDefault@DirectUI@@UAEJPAVElement@2@@Z
	?SetShadowIntensity@Element@DirectUI@@QAEJH@Z
	?SetSheet@Element@DirectUI@@QAEJPAVStyleSheet@2@@Z
	?SetShortcut@Element@DirectUI@@QAEJH@Z
	?SetSmoothingMode@Movie@DirectUI@@QAEJH@Z
	?SetStdCursor@Element@DirectUI@@QAEJH@Z
	?SetString@ElementProxy@DirectUI@@IAEJPAUtagVARIANT@@P8Element@2@AEPBGPAPAVValue@2@@Z@Z
	?SetStyle@CCTreeView@DirectUI@@QAEKK@Z
	?SetTargetPage@Navigator@DirectUI@@QAEJPBG@Z
	?SetTextGlowSize@Element@DirectUI@@QAEJH@Z
	?SetThemeChanged@HWNDHost@DirectUI@@IAEJH@Z
	?SetThemedBorder@Edit@DirectUI@@QAEJ_N@Z
	?SetThumbPosition@CCTrackBar@DirectUI@@QAEJH@Z
	?SetToHost@XBaby@DirectUI@@QAEJPAVElement@2@@Z
	?SetTooltip@Element@DirectUI@@QAEJ_N@Z
	?SetTooltipMaxWidth@Element@DirectUI@@QAEJH@Z
	?SetTracking@CCBaseScrollBar@DirectUI@@QAEJ_N@Z
	?SetTransparent@HWNDHost@DirectUI@@QAEJ_N@Z
	?SetUnavailableIcon@DUIXmlParser@DirectUI@@QAEXPAUHICON__@@@Z
	?SetUnknownAttrCallback@DUIXmlParser@DirectUI@@QAEXP6G_NPBGPAX@Z1@Z
	?SetValue@Element@DirectUI@@QAEJP6GPBUPropertyInfo@2@XZHPAVValue@2@@Z
	?SetValue@Element@DirectUI@@QAEJPBUPropertyInfo@2@HPAVValue@2@@Z
	?SetValue@RangeValueProvider@DirectUI@@UAGJN@Z
	?SetValue@ValueProvider@DirectUI@@UAGJPBG@Z
	?SetValue@ValueProxy@DirectUI@@AAEJPBG@Z
	?SetVertical@ScrollBar@DirectUI@@QAEJ_N@Z
	?SetVisible@Element@DirectUI@@QAEJ_N@Z
	?SetWantTabs@Edit@DirectUI@@QAEJ_N@Z
	?SetWidth@Element@DirectUI@@QAEJH@Z
	?SetWinStyle@CCBase@DirectUI@@QAEJH@Z
	?SetWindowActive@Element@DirectUI@@QAEJ_N@Z
	?SetWindowDirection@HWNDHost@DirectUI@@UAEXPAUHWND__@@@Z
	?SetWrapKeyboardNavigate@HWNDElement@DirectUI@@QAEJ_N@Z
	?SetX@Element@DirectUI@@QAEJH@Z
	?SetXBarVisibility@BaseScrollViewer@DirectUI@@QAEJH@Z
	?SetXML@DUIXmlParser@DirectUI@@QAEJPBGPAUHINSTANCE__@@1@Z
	?SetXMLFromResource@DUIXmlParser@DirectUI@@QAEJIPAUHINSTANCE__@@0@Z
	?SetXMLFromResource@DUIXmlParser@DirectUI@@QAEJPBGPAUHINSTANCE__@@1@Z
	?SetXOffset@BaseScrollViewer@DirectUI@@QAEJH@Z
	?SetXOffset@Viewer@DirectUI@@QAEJH@Z
	?SetXScrollable@BaseScrollViewer@DirectUI@@QAEJ_N@Z
	?SetXScrollable@Viewer@DirectUI@@QAEJ_N@Z
	?SetY@Element@DirectUI@@QAEJH@Z
	?SetYBarVisibility@BaseScrollViewer@DirectUI@@QAEJH@Z
	?SetYOffset@BaseScrollViewer@DirectUI@@QAEJH@Z
	?SetYOffset@Viewer@DirectUI@@QAEJH@Z
	?SetYScrollable@BaseScrollViewer@DirectUI@@QAEJ_N@Z
	?SetYScrollable@Viewer@DirectUI@@QAEJ_N@Z
	?ShadowIntensityProp@Element@DirectUI@@SGPBUPropertyInfo@2@XZ
	?SheetProp@Element@DirectUI@@SGPBUPropertyInfo@2@XZ
	?ShortcutProp@Element@DirectUI@@SGPBUPropertyInfo@2@XZ
	?ShowAccel@HWNDElement@DirectUI@@QAE_NXZ
	?ShowFocus@HWNDElement@DirectUI@@QAE_NXZ
	?ShowUIState@HWNDElement@DirectUI@@QAEX_N0@Z
	?ShowWindow@NativeHWNDHost@DirectUI@@QAEXH@Z
	?ShowWindow@XHost@DirectUI@@QAEXH@Z
	?SideGraphicProp@TextGraphic@DirectUI@@SGPBUPropertyInfo@2@XZ
	?SizeInLayoutProp@Element@DirectUI@@SGPBUPropertyInfo@2@XZ
	?SizeZero@FlowLayout@DirectUI@@KG?AUtagSIZE@@XZ
	?SizeZero@VerticalFlowLayout@DirectUI@@KG?AUtagSIZE@@XZ
	?Skip@DuiAccessible@DirectUI@@UAGJK@Z
	?Skip@HWNDHostAccessible@DirectUI@@UAGJK@Z
	?SliderControlType@Schema@DirectUI@@2HA
	?SmoothingModeProp@Movie@DirectUI@@SGPBUPropertyInfo@2@XZ
	?SortChildren@Element@DirectUI@@QAEJP6AHPBX0@Z@Z
	?SpinnerControlType@Schema@DirectUI@@2HA
	?SplitButtonControlType@Schema@DirectUI@@2HA
	?Start@AnimationStrip@DirectUI@@AAEJXZ
	?StartDefer@Element@DirectUI@@QAEXPAK@Z
	?StartNavigate@Browser@DirectUI@@SG?AVUID@@XZ
	?StaticWndProc@HWNDElement@DirectUI@@SGJPAUHWND__@@IIJ@Z
	?StaticXHostSubclassProc@TaskPage@DirectUI@@CGJPAUHWND__@@IIJ@Z
	?StaticXmlParserError@TaskPage@DirectUI@@CGXPBG0HPAX@Z
	?StatusBarControlType@Schema@DirectUI@@2HA
	?Stop@AnimationStrip@DirectUI@@AAEXXZ
	?Stop@CCAVI@DirectUI@@QAEXXZ
	?StopAnimation@Element@DirectUI@@QAEXI@Z
	?StrDupW@Value@DirectUI@@CGJPBGPAPAG@Z
	?StructureChangedEvent@Schema@DirectUI@@2HA
	?SyncBackground@HWNDHost@DirectUI@@IAEXXZ
	?SyncCallback@Proxy@DirectUI@@SGJPAUHGADGET__@@PAXPAUEventMsg@@@Z
	?SyncColorsAndFonts@HWNDHost@DirectUI@@AAEXXZ
	?SyncDirection@HWNDHost@DirectUI@@IAEXXZ
	?SyncFont@HWNDHost@DirectUI@@IAEXXZ
	?SyncForeground@HWNDHost@DirectUI@@IAEXXZ
	?SyncNoteAndGlyph@CCCommandLink@DirectUI@@IAEXPAUHWND__@@@Z
	?SyncParent@HWNDHost@DirectUI@@IAEXXZ
	?SyncRect@HWNDHost@DirectUI@@IAEXI_N@Z
	?SyncScrollBar@CCBaseScrollBar@DirectUI@@QAEXXZ
	?SyncStyle@HWNDHost@DirectUI@@IAEXXZ
	?SyncText@HWNDHost@DirectUI@@IAEXXZ
	?SyncVisible@HWNDHost@DirectUI@@IAEXXZ
	?TabControlType@Schema@DirectUI@@2HA
	?TabItemControlType@Schema@DirectUI@@2HA
	?TableControlType@Schema@DirectUI@@2HA
	?TableItemPattern@Schema@DirectUI@@2HA
	?TableItem_ColumnHeaderItems_Property@Schema@DirectUI@@2HA
	?TableItem_RowHeaderItems_Property@Schema@DirectUI@@2HA
	?TablePattern@Schema@DirectUI@@2HA
	?Table_ColumnHeaders_Property@Schema@DirectUI@@2HA
	?Table_RowHeaders_Property@Schema@DirectUI@@2HA
	?Table_RowOrColumnMajor_Property@Schema@DirectUI@@2HA
	?TargetPageProp@Navigator@DirectUI@@SGPBUPropertyInfo@2@XZ
	?TestDeferObject@Element@DirectUI@@QAEPAVDeferCycle@2@XZ
	?TextControlType@Schema@DirectUI@@2HA
	?TextGlowSizeProp@Element@DirectUI@@SGPBUPropertyInfo@2@XZ
	?TextPattern@Schema@DirectUI@@2HA
	?TextTextSelectionChangedEvent@Schema@DirectUI@@2HA
	?ThemeChange@HWNDElement@DirectUI@@SG?AVUID@@XZ
	?ThemeChangedProp@HWNDHost@DirectUI@@SGPBUPropertyInfo@2@XZ
	?ThemedBorderProp@Edit@DirectUI@@SGPBUPropertyInfo@2@XZ
	?ThumbControlType@Schema@DirectUI@@2HA
	?ThumbPositionProp@CCTrackBar@DirectUI@@SGPBUPropertyInfo@2@XZ
	?TitleBarControlType@Schema@DirectUI@@2HA
	?ToString@Value@DirectUI@@QBEPAGPAGI@Z
	?Toggle@AutoButton@DirectUI@@SG?AVUID@@XZ
	?Toggle@ToggleProvider@DirectUI@@UAGJXZ
	?TogglePattern@Schema@DirectUI@@2HA
	?ToggleUIState@HWNDElement@DirectUI@@QAEX_N0@Z
	?Toggle_ToggleState_Property@Schema@DirectUI@@2HA
	?ToolBarControlType@Schema@DirectUI@@2HA
	?ToolTipClosedEvent@Schema@DirectUI@@2HA
	?ToolTipControlType@Schema@DirectUI@@2HA
	?ToolTipOpenedEvent@Schema@DirectUI@@2HA
	?TooltipMaxWidthProp@Element@DirectUI@@SGPBUPropertyInfo@2@XZ
	?TooltipProp@Element@DirectUI@@SGPBUPropertyInfo@2@XZ
	?TossElement@ElementProvider@DirectUI@@QAEXXZ
	?TossPatternProvider@ElementProvider@DirectUI@@QAEXW4Pattern@Schema@2@@Z
	?TrackScore@NavScoring@DirectUI@@QAEHPAVElement@2@0@Z
	?TrackingProp@CCBaseScrollBar@DirectUI@@SGPBUPropertyInfo@2@XZ
	?TransformPattern@Schema@DirectUI@@2HA
	?TransparentProp@HWNDHost@DirectUI@@SGPBUPropertyInfo@2@XZ
	?TreeControlType@Schema@DirectUI@@2HA
	?TreeItemControlType@Schema@DirectUI@@2HA
	?Try@NavScoring@DirectUI@@QAEHPAVElement@2@HPBUNavReference@2@K@Z
	?TryLinePattern@Element@DirectUI@@AAE_NPAUtagPOINT@@ABUtagRECT@@@Z
	?TryPattern@Element@DirectUI@@AAE_NNNPAUtagPOINT@@ABUtagRECT@@@Z
	?TrySparsePattern@Element@DirectUI@@AAE_NPAUtagPOINT@@ABUtagRECT@@@Z
	?UiaEvents@Element@DirectUI@@QAE_NXZ
	?UiaHostProviderFromHwnd@Schema@DirectUI@@2P6GJPAUHWND__@@PAPAUIRawElementProviderSimple@@@ZA
	?UiaLookupId@Schema@DirectUI@@2P6GHW4AutomationIdentifierType@@PBU_GUID@@@ZA
	?UiaRaiseAutomationEvent@Schema@DirectUI@@2P6GJPAUIRawElementProviderSimple@@H@ZA
	?UiaRaiseAutomationPropertyChangedEvent@Schema@DirectUI@@2P6GJPAUIRawElementProviderSimple@@HUtagVARIANT@@1@ZA
	?UiaRaiseStructureChangedEvent@Schema@DirectUI@@2P6GJPAUIRawElementProviderSimple@@W4StructureChangeType@@PAHH@ZA
	?UiaReturnRawElementProvider@Schema@DirectUI@@2P6GJPAUHWND__@@IJPAUIRawElementProviderSimple@@@ZA
	?UnRegister@Element@DirectUI@@SGJPAPAUIClassInfo@2@@Z
	?UnhandledSyschar@XElement@DirectUI@@SG?AVUID@@XZ
	?Uninit@CallstackTracker@DirectUI@@SGXXZ
	?Uninit@InvokeHelper@DirectUI@@QAEXXZ
	?UninitProcess@FontCache@DirectUI@@SGXXZ
	?UninitThread@FontCache@DirectUI@@SGXXZ
	?UnloadCommonControlExports@AnimationStrip@DirectUI@@AAEXXZ
	?Unlock@CritSecLock@DirectUI@@QAEXXZ
	?UnvirtualizePosition@HWNDHost@DirectUI@@AAEXXZ
	?UpdateChildFocus@DialogElement@DirectUI@@UAEXPAVElement@2@0@Z
	?UpdateChildren@Expando@DirectUI@@IAEXPAVValue@2@@Z
	?UpdateDesiredSize@BorderLayout@DirectUI@@UAE?AUtagSIZE@@PAVElement@2@HHPAVSurface@2@@Z
	?UpdateDesiredSize@FillLayout@DirectUI@@UAE?AUtagSIZE@@PAVElement@2@HHPAVSurface@2@@Z
	?UpdateDesiredSize@FlowLayout@DirectUI@@UAE?AUtagSIZE@@PAVElement@2@HHPAVSurface@2@@Z
	?UpdateDesiredSize@GridLayout@DirectUI@@UAE?AUtagSIZE@@PAVElement@2@HHPAVSurface@2@@Z
	?UpdateDesiredSize@Layout@DirectUI@@UAE?AUtagSIZE@@PAVElement@2@HHPAVSurface@2@@Z
	?UpdateDesiredSize@NineGridLayout@DirectUI@@UAE?AUtagSIZE@@PAVElement@2@HHPAVSurface@2@@Z
	?UpdateDesiredSize@RowLayout@DirectUI@@UAE?AUtagSIZE@@PAVElement@2@HHPAVSurface@2@@Z
	?UpdateDesiredSize@TableLayout@DirectUI@@UAE?AUtagSIZE@@PAVElement@2@HHPAVSurface@2@@Z
	?UpdateDesiredSize@VerticalFlowLayout@DirectUI@@UAE?AUtagSIZE@@PAVElement@2@HHPAVSurface@2@@Z
	?UpdateLayout@Element@DirectUI@@QAEXXZ
	?UpdateLayoutRect@Layout@DirectUI@@SGXPAVElement@2@HH0HHHH@Z
	?UpdateSheets@DUIXmlParser@DirectUI@@QAEJPAVElement@2@@Z
	?UpdateTooltip@Element@DirectUI@@MAEXPAV12@@Z
	?UpdateTooltip@HWNDElement@DirectUI@@UAEXPAVElement@2@@Z
	?ValuePattern@Schema@DirectUI@@2HA
	?Value_IsReadOnly_Property@Schema@DirectUI@@2HA
	?Value_Value_Property@Schema@DirectUI@@2HA
	?VerifyParentage@HWNDHost@DirectUI@@IAEHXZ
	?VerticalProp@ScrollBar@DirectUI@@SGPBUPropertyInfo@2@XZ
	?VirtualizedItemPattern@Schema@DirectUI@@2HA
	?VisibleProp@Element@DirectUI@@SGPBUPropertyInfo@2@XZ
	?WantEvent@EventManager@DirectUI@@CG_NW4Event@Schema@2@H@Z
	?WantEvent@EventManager@DirectUI@@SG_NW4Event@Schema@2@@Z
	?WantPropertyEvent@EventManager@DirectUI@@SG_NH@Z
	?WantTabsProp@Edit@DirectUI@@SGPBUPropertyInfo@2@XZ
	?WidthProp@Element@DirectUI@@SGPBUPropertyInfo@2@XZ
	?WinStyleProp@CCBase@DirectUI@@SGPBUPropertyInfo@2@XZ
	?WindowActiveProp@Element@DirectUI@@SGPBUPropertyInfo@2@XZ
	?WindowControlType@Schema@DirectUI@@2HA
	?WindowPattern@Schema@DirectUI@@2HA
	?WindowWindowClosedEvent@Schema@DirectUI@@2HA
	?WindowWindowOpenedEvent@Schema@DirectUI@@2HA
	?WndProc@HWNDElement@DirectUI@@UAEJPAUHWND__@@IIJ@Z
	?WndProc@NativeHWNDHost@DirectUI@@SGJPAUHWND__@@IIJ@Z
	?WndProc@XHost@DirectUI@@SGJPAUHWND__@@IIJ@Z
	?WrapKeyboardNavigateProp@HWNDElement@DirectUI@@SGPBUPropertyInfo@2@XZ
	?XBarVisibilityProp@BaseScrollViewer@DirectUI@@SGPBUPropertyInfo@2@XZ
	?XOffsetProp@BaseScrollViewer@DirectUI@@SGPBUPropertyInfo@2@XZ
	?XOffsetProp@Viewer@DirectUI@@SGPBUPropertyInfo@2@XZ
	?XProp@Element@DirectUI@@SGPBUPropertyInfo@2@XZ
	?XScrollableProp@BaseScrollViewer@DirectUI@@SGPBUPropertyInfo@2@XZ
	?XScrollableProp@Viewer@DirectUI@@SGPBUPropertyInfo@2@XZ
	?YBarVisibilityProp@BaseScrollViewer@DirectUI@@SGPBUPropertyInfo@2@XZ
	?YOffsetProp@BaseScrollViewer@DirectUI@@SGPBUPropertyInfo@2@XZ
	?YOffsetProp@Viewer@DirectUI@@SGPBUPropertyInfo@2@XZ
	?YProp@Element@DirectUI@@SGPBUPropertyInfo@2@XZ
	?YScrollableProp@BaseScrollViewer@DirectUI@@SGPBUPropertyInfo@2@XZ
	?YScrollableProp@Viewer@DirectUI@@SGPBUPropertyInfo@2@XZ
	?_AddDependency@Element@DirectUI@@SGXPAV12@PBUPropertyInfo@2@HPAUDepRecs@2@PAVDeferCycle@2@PAJ@Z
	?_BroadcastEventWorker@Element@DirectUI@@AAEXPAUEvent@2@@Z
	?_CachedValueIsEqual@Element@DirectUI@@AAEHPBUPropertyInfo@2@PAV12@@Z
	?_CalcTabOrder@ShellBorderLayout@DirectUI@@AAEJPAVElement@2@@Z
	?_ClearNeedsLayout@Element@DirectUI@@QAEXXZ
	?_CtrlWndProc@HWNDHost@DirectUI@@CGHPAXPAUHWND__@@IIJPAJ@Z
	?_DeleteCtrlWnd@HWNDHost@DirectUI@@AAEXXZ
	?_DestroyTables@DUIXmlParser@DirectUI@@QAEXXZ
	?_DisplayNodeCallback@Element@DirectUI@@SGJPAUHGADGET__@@PAXPAUEventMsg@@@Z
	?_EndOptimizedLayoutQ@Element@DirectUI@@QAEXXZ
	?_EnterOnCurrentThread@DUIXmlParser@DirectUI@@IAEJXZ
	?_FlushDS@Element@DirectUI@@AAEXPAVDeferCycle@2@@Z
	?_FlushLayout@Element@DirectUI@@KGXPAV12@PAVDeferCycle@2@@Z
	?_GetBuriedSheetDependencies@Element@DirectUI@@AAEXPBUPropertyInfo@2@PAV12@PAUDepRecs@2@PAVDeferCycle@2@PAJ@Z
	?_GetChangesUpdatePass@Element@DirectUI@@QAEHXZ
	?_GetComputedValue@Element@DirectUI@@AAEPAVValue@2@PBUPropertyInfo@2@PAUUpdateCache@2@@Z
	?_GetDependencies@Element@DirectUI@@AAEJPBUPropertyInfo@2@HPAUDepRecs@2@HPAVValue@2@PAVDeferCycle@2@@Z
	?_GetLineInfo@DUIXmlParser@DirectUI@@IAE?AULINEINFO@2@PAUIXmlReader@@@Z
	?_GetLocalValue@Element@DirectUI@@AAEPAVValue@2@PBUPropertyInfo@2@@Z
	?_GetLocalValueFromVM@Element@DirectUI@@AAEPAVValue@2@PBUPropertyInfo@2@@Z
	?_GetNeedsLayout@Element@DirectUI@@QAEIXZ
	?_GetSpecifiedValue@Element@DirectUI@@AAEPAVValue@2@PBUPropertyInfo@2@PAUUpdateCache@2@@Z
	?_GetSpecifiedValueIgnoreCache@Element@DirectUI@@AAEPAVValue@2@PBUPropertyInfo@2@@Z
	?_InheritProperties@Element@DirectUI@@AAEXXZ
	?_InitializeTables@DUIXmlParser@DirectUI@@QAEJXZ
	?_InvalidateCachedDSConstraints@Element@DirectUI@@KGXPAV12@@Z
	?_LeaveOnCurrentThread@DUIXmlParser@DirectUI@@IAEXXZ
	?_MarkElementForDS@Element@DirectUI@@SGHPAV12@@Z
	?_MarkElementForLayout@Element@DirectUI@@SGHPAV12@I@Z
	?_OnFontPropChanged@Element@DirectUI@@IAEXPAVValue@2@@Z
	?_OnGetInfoTip@CCTreeView@DirectUI@@MAEJPBUtagNMTVGETINFOTIPW@@@Z
	?_OnItemChanged@CCTreeView@DirectUI@@MAEJPBUtagTVITEMCHANGE@@@Z
	?_PostSourceChange@Element@DirectUI@@AAEJXZ
	?_PreSourceChange@Element@DirectUI@@AAEJP6GPBUPropertyInfo@2@XZHPAVValue@2@1@Z
	?_PreSourceChange@Element@DirectUI@@AAEJPBUPropertyInfo@2@HPAVValue@2@1@Z
	?_RecordElementLayout@DUIXmlParser@DirectUI@@IAEJPAUIXmlReader@@PBG@Z
	?_RecordElementStyleSheet@DUIXmlParser@DirectUI@@IAEJPBG_N@Z
	?_RecordElementTrees@DUIXmlParser@DirectUI@@IAEJPAUIXmlReader@@@Z
	?_RecordElementWithChildren@DUIXmlParser@DirectUI@@IAEJPAUIXmlReader@@_NPAPAG@Z
	?_RecordInstantiateElement@DUIXmlParser@DirectUI@@IAEJPAUIXmlReader@@PAPAG@Z
	?_RecordSetElementProperties@DUIXmlParser@DirectUI@@IAEJPAUIXmlReader@@@Z
	?_RecordSetValue@DUIXmlParser@DirectUI@@IAEJPAUIXmlReader@@PBG1@Z
	?_RemoveLocalValue@Element@DirectUI@@IAEJP6GPBUPropertyInfo@2@XZ_N@Z
	?_RemoveLocalValue@Element@DirectUI@@IAEJPBUPropertyInfo@2@_N@Z
	?_RepeatButtonActionCallback@RepeatButton@DirectUI@@CGXPAUGMA_ACTIONINFO@@@Z
	?_Reset@ShellBorderLayout@DirectUI@@AAEXXZ
	?_SelfLayoutDoLayout@Clipper@DirectUI@@UAEXHH@Z
	?_SelfLayoutDoLayout@Element@DirectUI@@MAEXHH@Z
	?_SelfLayoutDoLayout@ScrollBar@DirectUI@@UAEXHH@Z
	?_SelfLayoutDoLayout@Viewer@DirectUI@@UAEXHH@Z
	?_SelfLayoutUpdateDesiredSize@Clipper@DirectUI@@UAE?AUtagSIZE@@HHPAVSurface@2@@Z
	?_SelfLayoutUpdateDesiredSize@Element@DirectUI@@MAE?AUtagSIZE@@HHPAVSurface@2@@Z
	?_SelfLayoutUpdateDesiredSize@ScrollBar@DirectUI@@UAE?AUtagSIZE@@HHPAVSurface@2@@Z
	?_SelfLayoutUpdateDesiredSize@Viewer@DirectUI@@UAE?AUtagSIZE@@HHPAVSurface@2@@Z
	?_SetGroupChanges@Element@DirectUI@@SG_NPAV12@HPAVDeferCycle@2@@Z
	?_SetNeedsLayout@Element@DirectUI@@QAEHI@Z
	?_SetValue@Element@DirectUI@@IAEJP6GPBUPropertyInfo@2@XZHPAVValue@2@_N@Z
	?_SetValue@Element@DirectUI@@IAEJPBUPropertyInfo@2@HPAVValue@2@_N@Z
	?_SinkWndProc@HWNDHost@DirectUI@@CGHPAXPAUHWND__@@IIJPAJ@Z
	?_StartOptimizedLayoutQ@Element@DirectUI@@QAEXXZ
	?_SyncBackground@Element@DirectUI@@AAEXXZ
	?_SyncRedrawStyle@Element@DirectUI@@AAEXXZ
	?_SyncVisible@Element@DirectUI@@AAEXXZ
	?_TransferGroupFlags@Element@DirectUI@@SGXPAV12@H@Z
	?_UpdateDesiredSize@Element@DirectUI@@QAE?AUtagSIZE@@HHPAVSurface@2@@Z
	?_UpdateLayoutPosition@Element@DirectUI@@QAEXHH@Z
	?_UpdateLayoutSize@Element@DirectUI@@QAEXHH@Z
	?_UpdatePropertyInCache@Element@DirectUI@@AAEXPBUPropertyInfo@2@@Z
	?_UpdateTileList@NineGridLayout@DirectUI@@AAEXHPAVElement@2@@Z
	?_UsesUIAProxies@ElementProxy@DirectUI@@IAEHXZ
	?_VoidPCNotifyTree@Element@DirectUI@@CGXHPAVDeferCycle@2@@Z
	?_WndProc@InvokeHelper@DirectUI@@CGHPAXPAUHWND__@@IIJPAJ@Z
	?_ZeroRelease@Value@DirectUI@@AAEXXZ
	?_atmArrow@Expando@DirectUI@@0GA
	?_atmClipper@Expando@DirectUI@@0GA
	?_roleMapping@Schema@DirectUI@@0QBURoleMap@12@B
	?accDoDefaultAction@DuiAccessible@DirectUI@@UAGJUtagVARIANT@@@Z
	?accDoDefaultAction@HWNDHostAccessible@DirectUI@@UAGJUtagVARIANT@@@Z
	?accHitTest@DuiAccessible@DirectUI@@UAGJJJPAUtagVARIANT@@@Z
	?accHitTest@HWNDHostAccessible@DirectUI@@UAGJJJPAUtagVARIANT@@@Z
	?accLocation@DuiAccessible@DirectUI@@UAGJPAJ000UtagVARIANT@@@Z
	?accLocation@HWNDHostAccessible@DirectUI@@UAGJPAJ000UtagVARIANT@@@Z
	?accNavigate@DuiAccessible@DirectUI@@UAGJJUtagVARIANT@@PAU3@@Z
	?accNavigate@HWNDHostAccessible@DirectUI@@UAGJJUtagVARIANT@@PAU3@@Z
	?accNavigate@HWNDHostClientAccessible@DirectUI@@UAGJJUtagVARIANT@@PAU3@@Z
	?accSelect@DuiAccessible@DirectUI@@UAGJJUtagVARIANT@@@Z
	?accSelect@HWNDHostAccessible@DirectUI@@UAGJJUtagVARIANT@@@Z
	?advanceFrameActionStart@Movie@DirectUI@@AAEXXZ
	?advanceFrameActionStop@Movie@DirectUI@@AAEXXZ
	?cChangeBulk@EventManager@DirectUI@@0HB
	?c_rgar@AccessibleButton@DirectUI@@0QBUACCESSIBLEROLE@12@B
	?doAction@Movie@DirectUI@@QAEXPAUGMA_ACTIONINFO@@@Z
	?g_cRefCount@ResourceModuleHandles@DirectUI@@0JC
	?g_controlInfoTable@Schema@DirectUI@@0QBUControlInfo@12@B
	?g_cs@ElementProviderManager@DirectUI@@2U_RTL_CRITICAL_SECTION@@A
	?g_cs@EventManager@DirectUI@@0U_RTL_CRITICAL_SECTION@@A
	?g_cs@InvokeManager@DirectUI@@0U_RTL_CRITICAL_SECTION@@A
	?g_dwElSlot@DirectUI@@3KA
	?g_eventInfoTable@Schema@DirectUI@@0QBUEventInfo@12@B
	?g_eventMapping@Schema@DirectUI@@0QBUEventMap@12@B
	?g_eventRegisteredMap@EventManager@DirectUI@@0PAIA
	?g_fInited@Schema@DirectUI@@0_NA
	?g_fWantAnyEvent@EventManager@DirectUI@@0_NA
	?g_pArrayInvokeHelper@InvokeManager@DirectUI@@0PAV?$UiaArray@PAVInvokeHelper@DirectUI@@@2@A
	?g_pArrayPprv@ElementProviderManager@DirectUI@@0PAV?$UiaArray@PAVElementProvider@DirectUI@@@2@A
	?g_pArrayPropertyEvent@EventManager@DirectUI@@0PAV?$UiaArray@H@2@A
	?g_patternInfoTable@Schema@DirectUI@@0QBUPatternInfo@12@B
	?g_patternMapping@Schema@DirectUI@@0QBUPatternMap@12@B
	?g_propertyInfoTable@Schema@DirectUI@@0QBUPropertyInfo@12@B
	?g_rgMouseMap@HWNDHost@DirectUI@@0QAY02$$CBIA
	?get_BoundingRectangle@ElementProvider@DirectUI@@UAGJPAUUiaRect@@@Z
	?get_CanSelectMultiple@SelectionProvider@DirectUI@@UAGJPAH@Z
	?get_Column@GridItemProvider@DirectUI@@UAGJPAH@Z
	?get_ColumnCount@GridProvider@DirectUI@@UAGJPAH@Z
	?get_ColumnSpan@GridItemProvider@DirectUI@@UAGJPAH@Z
	?get_ContainingGrid@GridItemProvider@DirectUI@@UAGJPAPAUIRawElementProviderSimple@@@Z
	?get_ExpandCollapseState@ExpandCollapseProvider@DirectUI@@UAGJPAW4ExpandCollapseState@@@Z
	?get_FragmentRoot@ElementProvider@DirectUI@@UAGJPAPAUIRawElementProviderFragmentRoot@@@Z
	?get_HorizontalScrollPercent@ScrollProvider@DirectUI@@UAGJPAN@Z
	?get_HorizontalViewSize@ScrollProvider@DirectUI@@UAGJPAN@Z
	?get_HorizontallyScrollable@ScrollProvider@DirectUI@@UAGJPAH@Z
	?get_HostRawElementProvider@ElementProvider@DirectUI@@UAGJPAPAUIRawElementProviderSimple@@@Z
	?get_IsReadOnly@RangeValueProvider@DirectUI@@UAGJPAH@Z
	?get_IsReadOnly@ValueProvider@DirectUI@@UAGJPAH@Z
	?get_IsSelected@SelectionItemProvider@DirectUI@@UAGJPAH@Z
	?get_IsSelectionRequired@SelectionProvider@DirectUI@@UAGJPAH@Z
	?get_LargeChange@RangeValueProvider@DirectUI@@UAGJPAN@Z
	?get_Maximum@RangeValueProvider@DirectUI@@UAGJPAN@Z
	?get_Minimum@RangeValueProvider@DirectUI@@UAGJPAN@Z
	?get_ProviderOptions@ElementProvider@DirectUI@@UAGJPAW4ProviderOptions@@@Z
	?get_Row@GridItemProvider@DirectUI@@UAGJPAH@Z
	?get_RowCount@GridProvider@DirectUI@@UAGJPAH@Z
	?get_RowOrColumnMajor@TableProvider@DirectUI@@UAGJPAW4RowOrColumnMajor@@@Z
	?get_RowSpan@GridItemProvider@DirectUI@@UAGJPAH@Z
	?get_SelectionContainer@SelectionItemProvider@DirectUI@@UAGJPAPAUIRawElementProviderSimple@@@Z
	?get_SmallChange@RangeValueProvider@DirectUI@@UAGJPAN@Z
	?get_ToggleState@ToggleProvider@DirectUI@@UAGJPAW4ToggleState@@@Z
	?get_Value@RangeValueProvider@DirectUI@@UAGJPAN@Z
	?get_Value@ValueProvider@DirectUI@@UAGJPAPAG@Z
	?get_VerticalScrollPercent@ScrollProvider@DirectUI@@UAGJPAN@Z
	?get_VerticalViewSize@ScrollProvider@DirectUI@@UAGJPAN@Z
	?get_VerticallyScrollable@ScrollProvider@DirectUI@@UAGJPAH@Z
	?get_accChild@DuiAccessible@DirectUI@@UAGJUtagVARIANT@@PAPAUIDispatch@@@Z
	?get_accChild@HWNDHostAccessible@DirectUI@@UAGJUtagVARIANT@@PAPAUIDispatch@@@Z
	?get_accChildCount@DuiAccessible@DirectUI@@UAGJPAJ@Z
	?get_accChildCount@HWNDHostAccessible@DirectUI@@UAGJPAJ@Z
	?get_accDefaultAction@DuiAccessible@DirectUI@@UAGJUtagVARIANT@@PAPAG@Z
	?get_accDefaultAction@HWNDHostAccessible@DirectUI@@UAGJUtagVARIANT@@PAPAG@Z
	?get_accDescription@DuiAccessible@DirectUI@@UAGJUtagVARIANT@@PAPAG@Z
	?get_accDescription@HWNDHostAccessible@DirectUI@@UAGJUtagVARIANT@@PAPAG@Z
	?get_accFocus@DuiAccessible@DirectUI@@UAGJPAUtagVARIANT@@@Z
	?get_accFocus@HWNDHostAccessible@DirectUI@@UAGJPAUtagVARIANT@@@Z
	?get_accHelp@DuiAccessible@DirectUI@@UAGJUtagVARIANT@@PAPAG@Z
	?get_accHelp@HWNDHostAccessible@DirectUI@@UAGJUtagVARIANT@@PAPAG@Z
	?get_accHelpTopic@DuiAccessible@DirectUI@@UAGJPAPAGUtagVARIANT@@PAJ@Z
	?get_accHelpTopic@HWNDHostAccessible@DirectUI@@UAGJPAPAGUtagVARIANT@@PAJ@Z
	?get_accKeyboardShortcut@DuiAccessible@DirectUI@@UAGJUtagVARIANT@@PAPAG@Z
	?get_accKeyboardShortcut@HWNDHostAccessible@DirectUI@@UAGJUtagVARIANT@@PAPAG@Z
	?get_accName@DuiAccessible@DirectUI@@UAGJUtagVARIANT@@PAPAG@Z
	?get_accName@HWNDHostAccessible@DirectUI@@UAGJUtagVARIANT@@PAPAG@Z
	?get_accParent@DuiAccessible@DirectUI@@UAGJPAPAUIDispatch@@@Z
	?get_accParent@HWNDElementAccessible@DirectUI@@UAGJPAPAUIDispatch@@@Z
	?get_accParent@HWNDHostAccessible@DirectUI@@UAGJPAPAUIDispatch@@@Z
	?get_accParent@HWNDHostClientAccessible@DirectUI@@UAGJPAPAUIDispatch@@@Z
	?get_accRole@DuiAccessible@DirectUI@@UAGJUtagVARIANT@@PAU3@@Z
	?get_accRole@HWNDHostAccessible@DirectUI@@UAGJUtagVARIANT@@PAU3@@Z
	?get_accRole@HWNDHostClientAccessible@DirectUI@@UAGJUtagVARIANT@@PAU3@@Z
	?get_accSelection@DuiAccessible@DirectUI@@UAGJPAUtagVARIANT@@@Z
	?get_accSelection@HWNDHostAccessible@DirectUI@@UAGJPAUtagVARIANT@@@Z
	?get_accState@DuiAccessible@DirectUI@@UAGJUtagVARIANT@@PAU3@@Z
	?get_accState@HWNDHostAccessible@DirectUI@@UAGJUtagVARIANT@@PAU3@@Z
	?get_accValue@DuiAccessible@DirectUI@@UAGJUtagVARIANT@@PAPAG@Z
	?get_accValue@HWNDHostAccessible@DirectUI@@UAGJUtagVARIANT@@PAPAG@Z
	?put_accName@DuiAccessible@DirectUI@@UAGJUtagVARIANT@@PAG@Z
	?put_accName@HWNDHostAccessible@DirectUI@@UAGJUtagVARIANT@@PAG@Z
	?put_accValue@DuiAccessible@DirectUI@@UAGJUtagVARIANT@@PAG@Z
	?put_accValue@HWNDHostAccessible@DirectUI@@UAGJUtagVARIANT@@PAG@Z
	?s_ImageHlpFuncList@CallstackTracker@DirectUI@@0PAUIMGHLPFN_LOAD@12@A
	?s_XMLParseError@DUIFactory@DirectUI@@CGXPBG0HPAX@Z
	?s_fInitFailed@CallstackTracker@DirectUI@@0HA
	?s_fdClr@DUIXmlParser@DirectUI@@1QBU?$FunctionDefinition@K@12@B
	?s_fdFill@DUIXmlParser@DirectUI@@1QBU?$FunctionDefinition@PAVValue@DirectUI@@@12@B
	?s_fdGraphic@DUIXmlParser@DirectUI@@1QBU?$FunctionDefinition@PAVValue@DirectUI@@@12@B
	?s_fdInt@DUIXmlParser@DirectUI@@1QBU?$FunctionDefinition@H@12@B
	?s_fdRect@DUIXmlParser@DirectUI@@1QBU?$FunctionDefinition@UtagRECT@@@12@B
	?s_fdString@DUIXmlParser@DirectUI@@1QBU?$FunctionDefinition@PAVValue@DirectUI@@@12@B
	?s_hProcess@CallstackTracker@DirectUI@@0PAXA
	?s_hinstImageHlp@CallstackTracker@DirectUI@@0PAUHINSTANCE__@@A
	?s_hinstNtDll@CallstackTracker@DirectUI@@0PAUHINSTANCE__@@A
	?s_pClassInfo@AccessibleButton@DirectUI@@0PAUIClassInfo@2@A
	?s_pClassInfo@AnimationStrip@DirectUI@@0PAUIClassInfo@2@A
	?s_pClassInfo@AutoButton@DirectUI@@0PAUIClassInfo@2@A
	?s_pClassInfo@BaseScrollViewer@DirectUI@@0PAUIClassInfo@2@A
	?s_pClassInfo@Bind@DirectUI@@0PAUIClassInfo@2@A
	?s_pClassInfo@Browser@DirectUI@@0PAUIClassInfo@2@A
	?s_pClassInfo@Button@DirectUI@@0PAUIClassInfo@2@A
	?s_pClassInfo@CCAVI@DirectUI@@0PAUIClassInfo@2@A
	?s_pClassInfo@CCBase@DirectUI@@0PAUIClassInfo@2@A
	?s_pClassInfo@CCBaseCheckRadioButton@DirectUI@@0PAUIClassInfo@2@A
	?s_pClassInfo@CCBaseScrollBar@DirectUI@@0PAUIClassInfo@2@A
	?s_pClassInfo@CCCheckBox@DirectUI@@0PAUIClassInfo@2@A
	?s_pClassInfo@CCCommandLink@DirectUI@@0PAUIClassInfo@2@A
	?s_pClassInfo@CCHScrollBar@DirectUI@@0PAUIClassInfo@2@A
	?s_pClassInfo@CCListBox@DirectUI@@0PAUIClassInfo@2@A
	?s_pClassInfo@CCListView@DirectUI@@0PAUIClassInfo@2@A
	?s_pClassInfo@CCProgressBar@DirectUI@@0PAUIClassInfo@2@A
	?s_pClassInfo@CCPushButton@DirectUI@@0PAUIClassInfo@2@A
	?s_pClassInfo@CCRadioButton@DirectUI@@0PAUIClassInfo@2@A
	?s_pClassInfo@CCSysLink@DirectUI@@0PAUIClassInfo@2@A
	?s_pClassInfo@CCTrackBar@DirectUI@@0PAUIClassInfo@2@A
	?s_pClassInfo@CCTreeView@DirectUI@@0PAUIClassInfo@2@A
	?s_pClassInfo@CCVScrollBar@DirectUI@@0PAUIClassInfo@2@A
	?s_pClassInfo@CheckBoxGlyph@DirectUI@@0PAUIClassInfo@2@A
	?s_pClassInfo@Clipper@DirectUI@@0PAUIClassInfo@2@A
	?s_pClassInfo@Combobox@DirectUI@@0PAUIClassInfo@2@A
	?s_pClassInfo@DialogElement@DirectUI@@0PAUIClassInfo@2@A
	?s_pClassInfo@Edit@DirectUI@@0PAUIClassInfo@2@A
	?s_pClassInfo@Element@DirectUI@@0PAUIClassInfo@2@A
	?s_pClassInfo@ElementWithHWND@DirectUI@@0PAUIClassInfo@2@A
	?s_pClassInfo@Expandable@DirectUI@@0PAUIClassInfo@2@A
	?s_pClassInfo@Expando@DirectUI@@0PAUIClassInfo@2@A
	?s_pClassInfo@ExpandoButtonGlyph@DirectUI@@0PAUIClassInfo@2@A
	?s_pClassInfo@HWNDElement@DirectUI@@0PAUIClassInfo@2@A
	?s_pClassInfo@HWNDHost@DirectUI@@0PAUIClassInfo@2@A
	?s_pClassInfo@Macro@DirectUI@@0PAUIClassInfo@2@A
	?s_pClassInfo@Movie@DirectUI@@0PAUIClassInfo@2@A
	?s_pClassInfo@Navigator@DirectUI@@0PAUIClassInfo@2@A
	?s_pClassInfo@PText@DirectUI@@0PAUIClassInfo@2@A
	?s_pClassInfo@Page@DirectUI@@0PAUIClassInfo@2@A
	?s_pClassInfo@Pages@DirectUI@@0PAUIClassInfo@2@A
	?s_pClassInfo@Progress@DirectUI@@0PAUIClassInfo@2@A
	?s_pClassInfo@PushButton@DirectUI@@0PAUIClassInfo@2@A
	?s_pClassInfo@RadioButtonGlyph@DirectUI@@0PAUIClassInfo@2@A
	?s_pClassInfo@RefPointElement@DirectUI@@0PAUIClassInfo@2@A
	?s_pClassInfo@RepeatButton@DirectUI@@0PAUIClassInfo@2@A
	?s_pClassInfo@Repeater@DirectUI@@0PAUIClassInfo@2@A
	?s_pClassInfo@ScrollBar@DirectUI@@0PAUIClassInfo@2@A
	?s_pClassInfo@ScrollViewer@DirectUI@@0PAUIClassInfo@2@A
	?s_pClassInfo@Selector@DirectUI@@0PAUIClassInfo@2@A
	?s_pClassInfo@SelectorNoDefault@DirectUI@@0PAUIClassInfo@2@A
	?s_pClassInfo@StyledScrollViewer@DirectUI@@0PAUIClassInfo@2@A
	?s_pClassInfo@TextGraphic@DirectUI@@0PAUIClassInfo@2@A
	?s_pClassInfo@Thumb@DirectUI@@0PAUIClassInfo@2@A
	?s_pClassInfo@UnknownElement@DirectUI@@0PAUIClassInfo@2@A
	?s_pClassInfo@Viewer@DirectUI@@0PAUIClassInfo@2@A
	?s_pClassInfo@XBaby@DirectUI@@0PAUIClassInfo@2@A
	?s_pClassInfo@XElement@DirectUI@@0PAUIClassInfo@2@A
	?s_pfnImagehlpApiVersionEx@CallstackTracker@DirectUI@@0P6GPAUAPI_VERSION@@PAU3@@ZA
	?s_pfnRtlCaptureStackBackTrace@CallstackTracker@DirectUI@@0P6GGKKPAPAXPAK@ZA
	?s_pfnSymFromAddr@CallstackTracker@DirectUI@@0P6GHPAX_KPA_KPAU_SYMBOL_INFO@@@ZA
	?s_pfnSymGetModuleInfo64@CallstackTracker@DirectUI@@0P6GHPAX_KPAU_IMAGEHLP_MODULE64@@@ZA
	?s_pfnSymInitialize@CallstackTracker@DirectUI@@0P6GHPAXPBDH@ZA
	?s_pfnSymLoadModule64@CallstackTracker@DirectUI@@0P6G_KPAX0PBD1_KK@ZA
	?s_pfnSymSetOptions@CallstackTracker@DirectUI@@0P6GKK@ZA
	?s_uButtonFocusChangeMsg@XElement@DirectUI@@2IB
	?s_uInvokeHelperMsg@InvokeHelper@DirectUI@@0IB
	?s_uNavigateOutMsg@XElement@DirectUI@@2IB
	?s_uUnhandledSyscharMsg@XElement@DirectUI@@2IB
    
    ; These functions are stdcall, so they are really here just for reference
	BlurBitmap
	BrushFromEnumI
	ColorFromEnumI
	CreateDUIWrapper
	CreateDUIWrapperEx
	CreateDUIWrapperFromResource
	DUIDrawShadowText
	DisableAnimations
	DrawShadowTextEx
	ElementFromGadget
	EnableAnimations
	FlushThemeHandles
	ForceDebugBreak
	GetElementDataEntry
	GetElementMacro
	GetFontCache
	GetScreenDPI
	GetThemeHandle
	HStrDup
	HrSysAllocString
	InitPreprocessor
	InitProcessPriv
	InitThread
	IsAnimationsEnabled
	IsPalette
	IsUIAutomationProviderEnabled
	MultiByteToUnicode
	NotifyAccessibilityEvent
	PreprocessBuffer
	ProcessAlphaBitmapI
	PurgeThemeHandles
	RegisterAllControls
	RegisterBaseControls
	RegisterBrowserControls
	RegisterCommonControls
	RegisterExtendedControls
	RegisterMacroControls
	RegisterMiscControls
	RegisterStandardControls
	RegisterXControls
	SetDefAction
	StartMessagePump
	StopMessagePump
    StrToID
	UiaHideOnGetObject
	UiaOnDestroySink
	UiaOnGetObject
	UiaOnToolTip
	UnInitProcessPriv
	UnInitThread
	UnicodeToMultiByte
    
    ; stdcalls aliases
    ?CreateDUIWrapper@DirectUI@@YGHPAVElement@1@PAVXProvider@1@@Z                                  @3214
    ?CreateDUIWrapperEx@DirectUI@@YGHPAVElement@1@PAVIXProviderCP@1@PAVXProvider@1@@Z                            @3215
    ?CreateDUIWrapperFromResource@DirectUI@@YGHPAUHINSTANCE__@@PAG11PAVXResourceProvider@1@@Z           @3216
	?GetScreenDPI@DirectUI@@YGHXZ                                        @3227
    ?InitProcessPriv@DirectUI@@YGJHPAGD_N@Z        @3232
    ?InitThread@DirectUI@@YGJH@Z                               @3233
    ?RegisterAllControls@DirectUI@@YGHXZ     @3242
    ?RegisterBaseControls@DirectUI@@YGHXZ                             @3243
    ?RegisterBrowserControls@DirectUI@@YGHXZ                         @3244
    ?RegisterCommonControls@DirectUI@@YGHXZ                        @3245
    ?RegisterExtendedControls@DirectUI@@YGHXZ                       @3246
    ?RegisterMacroControls@DirectUI@@YGHXZ                            @3247
    ?RegisterMiscControls@DirectUI@@YGHXZ                              @3248
    ?RegisterStandardControls@DirectUI@@YGHXZ                        @3249
    ?RegisterXControls@DirectUI@@YGHXZ                                   @3250
    ?StartMessagePump@DirectUI@@YGHXZ   @3252
	?StopMessagePump@DirectUI@@YGHXZ   @3253
    ?StrToID@DirectUI@@YGGPBG@Z            @3254
    ?UnInitProcessPriv@DirectUI@@YGJPAG@Z              @3259
	?UnInitThread@DirectUI@@YGXXZ               @3260
	?UnicodeToMultiByte@DirectUI@@YGHPBGHH@Z	@3261
	?MultiByteToUnicode@DirectUI@@YGHPBDHH@Z		@3237
	?IsUIAutomationProviderEnabled@DirectUI@@YGHXZ	@3236
	?IsPalette@DirectUI@@YGHPAUHWND__@@@Z		@3235
	?IsAnimationsEnabled@DirectUI@@YGHXZ				@3234
